

Microchip MPLAB XC8 Assembler V2.40 build 20220703182018 
                                                                                               Wed Mar 01 12:41:54 2023

Microchip MPLAB XC8 C Compiler v2.40 (Free license) build 20220703182018 Og1 
     1                           	processor	16F1827
     2                           	pagewidth 120
     3                           	opt	flic
     4                           	psect	nvBANK1,global,class=BANK1,space=1,delta=1,noexec
     5                           	psect	cinit,global,class=CODE,merge=1,delta=2
     6                           	psect	bssBANK1,global,class=BANK1,space=1,delta=1,noexec
     7                           	psect	cstackBANK1,global,class=BANK1,space=1,delta=1,noexec
     8                           	psect	cstackCOMMON,global,class=COMMON,space=1,delta=1,noexec
     9                           	psect	cstackBANK0,global,class=BANK0,space=1,delta=1,noexec
    10                           	psect	maintext,global,class=CODE,merge=1,split=1,delta=2
    11                           	psect	text1,local,class=CODE,merge=1,delta=2
    12                           	psect	text2,local,class=CODE,merge=1,delta=2
    13                           	psect	text3,local,class=CODE,merge=1,delta=2
    14                           	psect	text4,local,class=CODE,merge=1,delta=2
    15                           	psect	text5,local,class=CODE,merge=1,delta=2
    16                           	psect	text6,local,class=CODE,merge=1,delta=2
    17                           	psect	text7,local,class=CODE,merge=1,delta=2
    18                           	psect	text8,local,class=CODE,merge=1,delta=2
    19                           	psect	text9,local,class=CODE,merge=1,delta=2
    20                           	psect	text10,local,class=CODE,merge=1,delta=2
    21                           	psect	text11,local,class=CODE,merge=1,delta=2
    22                           	psect	text12,local,class=CODE,merge=1,delta=2
    23                           	psect	text13,local,class=CODE,merge=1,delta=2
    24                           	psect	text14,local,class=CODE,merge=1,delta=2
    25                           	psect	text15,local,class=CODE,merge=1,delta=2
    26                           	psect	text16,local,class=CODE,merge=1,delta=2
    27                           	psect	text17,local,class=CODE,merge=1,delta=2
    28                           	psect	text18,local,class=CODE,merge=1,delta=2
    29                           	psect	text19,local,class=CODE,merge=1,delta=2
    30                           	psect	text20,local,class=CODE,merge=1,delta=2
    31                           	psect	text21,local,class=CODE,merge=1,delta=2
    32                           	psect	text22,local,class=CODE,merge=1,delta=2
    33                           	psect	text23,local,class=CODE,merge=1,delta=2
    34                           	psect	text24,local,class=CODE,merge=1,delta=2
    35                           	psect	text25,local,class=CODE,merge=1,delta=2
    36                           	psect	text26,local,class=CODE,merge=1,delta=2
    37                           	psect	text27,local,class=CODE,merge=1,delta=2
    38                           	psect	text28,local,class=CODE,merge=1,delta=2
    39                           	psect	text29,local,class=CODE,merge=1,delta=2
    40                           	psect	text30,local,class=CODE,merge=1,delta=2
    41                           	psect	text31,local,class=CODE,merge=1,delta=2,group=1
    42                           	psect	text32,local,class=CODE,merge=1,delta=2,group=1
    43                           	psect	text33,local,class=CODE,merge=1,delta=2,group=1
    44                           	psect	text34,local,class=CODE,merge=1,delta=2,group=1
    45                           	psect	text35,local,class=CODE,merge=1,delta=2,group=1
    46                           	psect	text36,local,class=CODE,merge=1,delta=2,group=1
    47                           	psect	text37,local,class=CODE,merge=1,delta=2,group=1
    48                           	psect	intentry,global,class=CODE,delta=2
    49                           	psect	text39,local,class=CODE,merge=1,delta=2
    50                           	psect	text40,local,class=CODE,merge=1,delta=2
    51                           	psect	text41,local,class=CODE,merge=1,delta=2
    52                           	psect	text42,local,class=CODE,merge=1,delta=2
    53                           	psect	text43,local,class=CODE,merge=1,delta=2
    54                           	psect	text44,local,class=CODE,merge=1,delta=2
    55                           	psect	idloc,global,abs,ovrld,class=IDLOC,space=5,delta=2,noexec
    56                           	psect	config,global,abs,ovrld,class=CONFIG,space=4,delta=2,noexec
    57                           	dabs	1,0x7E,2
    58     0000                     
    59                           ; Version 2.40
    60                           ; Generated 17/11/2021 GMT
    61                           ; 
    62                           ; Copyright © 2021, Microchip Technology Inc. and its subsidiaries ("Microchip")
    63                           ; All rights reserved.
    64                           ; 
    65                           ; This software is developed by Microchip Technology Inc. and its subsidiaries ("Microch
      +                          ip").
    66                           ; 
    67                           ; Redistribution and use in source and binary forms, with or without modification, are
    68                           ; permitted provided that the following conditions are met:
    69                           ; 
    70                           ;     1. Redistributions of source code must retain the above copyright notice, this lis
      +                          t of
    71                           ;        conditions and the following disclaimer.
    72                           ; 
    73                           ;     2. Redistributions in binary form must reproduce the above copyright notice, this 
      +                          list
    74                           ;        of conditions and the following disclaimer in the documentation and/or other
    75                           ;        materials provided with the distribution. Publication is not required when
    76                           ;        this file is used in an embedded application.
    77                           ; 
    78                           ;     3. Microchip's name may not be used to endorse or promote products derived from th
      +                          is
    79                           ;        software without specific prior written permission.
    80                           ; 
    81                           ; THIS SOFTWARE IS PROVIDED BY MICROCHIP "AS IS" AND ANY EXPRESS OR IMPLIED WARRANTIES,
    82                           ; INCLUDING, BUT NOT LIMITED TO, THE IMPLIED WARRANTIES OF MERCHANTABILITY AND FITNESS F
      +                          OR
    83                           ; PURPOSE ARE DISCLAIMED.  IN NO EVENT SHALL MICROCHIP BE LIABLE FOR ANY DIRECT, INDIREC
      +                          T,
    84                           ; INCIDENTAL, SPECIAL, EXEMPLARY, OR CONSEQUENTIAL DAMAGES (INCLUDING BUT NOT LIMITED TO
    85                           ; PROCUREMENT OF SUBSTITUTE GOODS OR SERVICES; LOSS OF USE, DATA OR PROFITS; OR BUSINESS
    86                           ; INTERRUPTION) HOWSOEVER CAUSED AND ON ANY THEORY OF LIABILITY, WHETHER IN CONTRACT, ST
      +                          RICT
    87                           ; LIABILITY, OR TORT (INCLUDING NEGLIGENCE OR OTHERWISE) ARISING IN ANY WAY OUT OF THE U
      +                          SE OF
    88                           ; THIS SOFTWARE, EVEN IF ADVISED OF THE POSSIBILITY OF SUCH DAMAGE.
    89                           ; 
    90                           ; 
    91                           ; Code-generator required, PIC16F1827 Definitions
    92                           ; 
    93                           ; SFR Addresses
    94     0000                     	;# 
    95     0001                     	;# 
    96     0002                     	;# 
    97     0003                     	;# 
    98     0004                     	;# 
    99     0005                     	;# 
   100     0006                     	;# 
   101     0007                     	;# 
   102     0008                     	;# 
   103     0009                     	;# 
   104     000A                     	;# 
   105     000B                     	;# 
   106     000C                     	;# 
   107     000D                     	;# 
   108     0011                     	;# 
   109     0012                     	;# 
   110     0013                     	;# 
   111     0014                     	;# 
   112     0015                     	;# 
   113     0016                     	;# 
   114     0016                     	;# 
   115     0017                     	;# 
   116     0018                     	;# 
   117     0019                     	;# 
   118     001A                     	;# 
   119     001B                     	;# 
   120     001C                     	;# 
   121     001E                     	;# 
   122     001F                     	;# 
   123     008C                     	;# 
   124     008D                     	;# 
   125     0091                     	;# 
   126     0092                     	;# 
   127     0093                     	;# 
   128     0094                     	;# 
   129     0095                     	;# 
   130     0096                     	;# 
   131     0097                     	;# 
   132     0098                     	;# 
   133     0099                     	;# 
   134     009A                     	;# 
   135     009B                     	;# 
   136     009B                     	;# 
   137     009C                     	;# 
   138     009D                     	;# 
   139     009E                     	;# 
   140     010C                     	;# 
   141     010D                     	;# 
   142     0111                     	;# 
   143     0112                     	;# 
   144     0113                     	;# 
   145     0114                     	;# 
   146     0115                     	;# 
   147     0116                     	;# 
   148     0117                     	;# 
   149     0118                     	;# 
   150     0119                     	;# 
   151     011A                     	;# 
   152     011B                     	;# 
   153     011D                     	;# 
   154     011E                     	;# 
   155     018C                     	;# 
   156     018D                     	;# 
   157     0191                     	;# 
   158     0191                     	;# 
   159     0192                     	;# 
   160     0193                     	;# 
   161     0193                     	;# 
   162     0193                     	;# 
   163     0194                     	;# 
   164     0195                     	;# 
   165     0196                     	;# 
   166     0199                     	;# 
   167     019A                     	;# 
   168     019B                     	;# 
   169     019B                     	;# 
   170     019B                     	;# 
   171     019B                     	;# 
   172     019C                     	;# 
   173     019C                     	;# 
   174     019D                     	;# 
   175     019E                     	;# 
   176     019F                     	;# 
   177     020C                     	;# 
   178     020D                     	;# 
   179     0211                     	;# 
   180     0211                     	;# 
   181     0212                     	;# 
   182     0212                     	;# 
   183     0213                     	;# 
   184     0213                     	;# 
   185     0214                     	;# 
   186     0214                     	;# 
   187     0215                     	;# 
   188     0215                     	;# 
   189     0215                     	;# 
   190     0216                     	;# 
   191     0216                     	;# 
   192     0217                     	;# 
   193     0217                     	;# 
   194     0219                     	;# 
   195     021A                     	;# 
   196     021B                     	;# 
   197     021C                     	;# 
   198     021D                     	;# 
   199     021E                     	;# 
   200     021F                     	;# 
   201     0291                     	;# 
   202     0291                     	;# 
   203     0292                     	;# 
   204     0293                     	;# 
   205     0294                     	;# 
   206     0295                     	;# 
   207     0295                     	;# 
   208     0296                     	;# 
   209     0298                     	;# 
   210     0298                     	;# 
   211     0299                     	;# 
   212     029A                     	;# 
   213     029B                     	;# 
   214     029C                     	;# 
   215     029C                     	;# 
   216     029D                     	;# 
   217     029E                     	;# 
   218     029E                     	;# 
   219     0311                     	;# 
   220     0311                     	;# 
   221     0312                     	;# 
   222     0313                     	;# 
   223     0318                     	;# 
   224     0318                     	;# 
   225     0319                     	;# 
   226     031A                     	;# 
   227     0394                     	;# 
   228     0395                     	;# 
   229     0396                     	;# 
   230     039A                     	;# 
   231     039C                     	;# 
   232     039D                     	;# 
   233     039E                     	;# 
   234     039F                     	;# 
   235     0415                     	;# 
   236     0416                     	;# 
   237     0417                     	;# 
   238     041C                     	;# 
   239     041D                     	;# 
   240     041E                     	;# 
   241     0FE4                     	;# 
   242     0FE5                     	;# 
   243     0FE6                     	;# 
   244     0FE7                     	;# 
   245     0FE8                     	;# 
   246     0FE9                     	;# 
   247     0FEA                     	;# 
   248     0FEB                     	;# 
   249     0FED                     	;# 
   250     0FEE                     	;# 
   251     0FEF                     	;# 
   252     0000                     	;# 
   253     0001                     	;# 
   254     0002                     	;# 
   255     0003                     	;# 
   256     0004                     	;# 
   257     0005                     	;# 
   258     0006                     	;# 
   259     0007                     	;# 
   260     0008                     	;# 
   261     0009                     	;# 
   262     000A                     	;# 
   263     000B                     	;# 
   264     000C                     	;# 
   265     000D                     	;# 
   266     0011                     	;# 
   267     0012                     	;# 
   268     0013                     	;# 
   269     0014                     	;# 
   270     0015                     	;# 
   271     0016                     	;# 
   272     0016                     	;# 
   273     0017                     	;# 
   274     0018                     	;# 
   275     0019                     	;# 
   276     001A                     	;# 
   277     001B                     	;# 
   278     001C                     	;# 
   279     001E                     	;# 
   280     001F                     	;# 
   281     008C                     	;# 
   282     008D                     	;# 
   283     0091                     	;# 
   284     0092                     	;# 
   285     0093                     	;# 
   286     0094                     	;# 
   287     0095                     	;# 
   288     0096                     	;# 
   289     0097                     	;# 
   290     0098                     	;# 
   291     0099                     	;# 
   292     009A                     	;# 
   293     009B                     	;# 
   294     009B                     	;# 
   295     009C                     	;# 
   296     009D                     	;# 
   297     009E                     	;# 
   298     010C                     	;# 
   299     010D                     	;# 
   300     0111                     	;# 
   301     0112                     	;# 
   302     0113                     	;# 
   303     0114                     	;# 
   304     0115                     	;# 
   305     0116                     	;# 
   306     0117                     	;# 
   307     0118                     	;# 
   308     0119                     	;# 
   309     011A                     	;# 
   310     011B                     	;# 
   311     011D                     	;# 
   312     011E                     	;# 
   313     018C                     	;# 
   314     018D                     	;# 
   315     0191                     	;# 
   316     0191                     	;# 
   317     0192                     	;# 
   318     0193                     	;# 
   319     0193                     	;# 
   320     0193                     	;# 
   321     0194                     	;# 
   322     0195                     	;# 
   323     0196                     	;# 
   324     0199                     	;# 
   325     019A                     	;# 
   326     019B                     	;# 
   327     019B                     	;# 
   328     019B                     	;# 
   329     019B                     	;# 
   330     019C                     	;# 
   331     019C                     	;# 
   332     019D                     	;# 
   333     019E                     	;# 
   334     019F                     	;# 
   335     020C                     	;# 
   336     020D                     	;# 
   337     0211                     	;# 
   338     0211                     	;# 
   339     0212                     	;# 
   340     0212                     	;# 
   341     0213                     	;# 
   342     0213                     	;# 
   343     0214                     	;# 
   344     0214                     	;# 
   345     0215                     	;# 
   346     0215                     	;# 
   347     0215                     	;# 
   348     0216                     	;# 
   349     0216                     	;# 
   350     0217                     	;# 
   351     0217                     	;# 
   352     0219                     	;# 
   353     021A                     	;# 
   354     021B                     	;# 
   355     021C                     	;# 
   356     021D                     	;# 
   357     021E                     	;# 
   358     021F                     	;# 
   359     0291                     	;# 
   360     0291                     	;# 
   361     0292                     	;# 
   362     0293                     	;# 
   363     0294                     	;# 
   364     0295                     	;# 
   365     0295                     	;# 
   366     0296                     	;# 
   367     0298                     	;# 
   368     0298                     	;# 
   369     0299                     	;# 
   370     029A                     	;# 
   371     029B                     	;# 
   372     029C                     	;# 
   373     029C                     	;# 
   374     029D                     	;# 
   375     029E                     	;# 
   376     029E                     	;# 
   377     0311                     	;# 
   378     0311                     	;# 
   379     0312                     	;# 
   380     0313                     	;# 
   381     0318                     	;# 
   382     0318                     	;# 
   383     0319                     	;# 
   384     031A                     	;# 
   385     0394                     	;# 
   386     0395                     	;# 
   387     0396                     	;# 
   388     039A                     	;# 
   389     039C                     	;# 
   390     039D                     	;# 
   391     039E                     	;# 
   392     039F                     	;# 
   393     0415                     	;# 
   394     0416                     	;# 
   395     0417                     	;# 
   396     041C                     	;# 
   397     041D                     	;# 
   398     041E                     	;# 
   399     0FE4                     	;# 
   400     0FE5                     	;# 
   401     0FE6                     	;# 
   402     0FE7                     	;# 
   403     0FE8                     	;# 
   404     0FE9                     	;# 
   405     0FEA                     	;# 
   406     0FEB                     	;# 
   407     0FED                     	;# 
   408     0FEE                     	;# 
   409     0FEF                     	;# 
   410     0000                     	;# 
   411     0001                     	;# 
   412     0002                     	;# 
   413     0003                     	;# 
   414     0004                     	;# 
   415     0005                     	;# 
   416     0006                     	;# 
   417     0007                     	;# 
   418     0008                     	;# 
   419     0009                     	;# 
   420     000A                     	;# 
   421     000B                     	;# 
   422     000C                     	;# 
   423     000D                     	;# 
   424     0011                     	;# 
   425     0012                     	;# 
   426     0013                     	;# 
   427     0014                     	;# 
   428     0015                     	;# 
   429     0016                     	;# 
   430     0016                     	;# 
   431     0017                     	;# 
   432     0018                     	;# 
   433     0019                     	;# 
   434     001A                     	;# 
   435     001B                     	;# 
   436     001C                     	;# 
   437     001E                     	;# 
   438     001F                     	;# 
   439     008C                     	;# 
   440     008D                     	;# 
   441     0091                     	;# 
   442     0092                     	;# 
   443     0093                     	;# 
   444     0094                     	;# 
   445     0095                     	;# 
   446     0096                     	;# 
   447     0097                     	;# 
   448     0098                     	;# 
   449     0099                     	;# 
   450     009A                     	;# 
   451     009B                     	;# 
   452     009B                     	;# 
   453     009C                     	;# 
   454     009D                     	;# 
   455     009E                     	;# 
   456     010C                     	;# 
   457     010D                     	;# 
   458     0111                     	;# 
   459     0112                     	;# 
   460     0113                     	;# 
   461     0114                     	;# 
   462     0115                     	;# 
   463     0116                     	;# 
   464     0117                     	;# 
   465     0118                     	;# 
   466     0119                     	;# 
   467     011A                     	;# 
   468     011B                     	;# 
   469     011D                     	;# 
   470     011E                     	;# 
   471     018C                     	;# 
   472     018D                     	;# 
   473     0191                     	;# 
   474     0191                     	;# 
   475     0192                     	;# 
   476     0193                     	;# 
   477     0193                     	;# 
   478     0193                     	;# 
   479     0194                     	;# 
   480     0195                     	;# 
   481     0196                     	;# 
   482     0199                     	;# 
   483     019A                     	;# 
   484     019B                     	;# 
   485     019B                     	;# 
   486     019B                     	;# 
   487     019B                     	;# 
   488     019C                     	;# 
   489     019C                     	;# 
   490     019D                     	;# 
   491     019E                     	;# 
   492     019F                     	;# 
   493     020C                     	;# 
   494     020D                     	;# 
   495     0211                     	;# 
   496     0211                     	;# 
   497     0212                     	;# 
   498     0212                     	;# 
   499     0213                     	;# 
   500     0213                     	;# 
   501     0214                     	;# 
   502     0214                     	;# 
   503     0215                     	;# 
   504     0215                     	;# 
   505     0215                     	;# 
   506     0216                     	;# 
   507     0216                     	;# 
   508     0217                     	;# 
   509     0217                     	;# 
   510     0219                     	;# 
   511     021A                     	;# 
   512     021B                     	;# 
   513     021C                     	;# 
   514     021D                     	;# 
   515     021E                     	;# 
   516     021F                     	;# 
   517     0291                     	;# 
   518     0291                     	;# 
   519     0292                     	;# 
   520     0293                     	;# 
   521     0294                     	;# 
   522     0295                     	;# 
   523     0295                     	;# 
   524     0296                     	;# 
   525     0298                     	;# 
   526     0298                     	;# 
   527     0299                     	;# 
   528     029A                     	;# 
   529     029B                     	;# 
   530     029C                     	;# 
   531     029C                     	;# 
   532     029D                     	;# 
   533     029E                     	;# 
   534     029E                     	;# 
   535     0311                     	;# 
   536     0311                     	;# 
   537     0312                     	;# 
   538     0313                     	;# 
   539     0318                     	;# 
   540     0318                     	;# 
   541     0319                     	;# 
   542     031A                     	;# 
   543     0394                     	;# 
   544     0395                     	;# 
   545     0396                     	;# 
   546     039A                     	;# 
   547     039C                     	;# 
   548     039D                     	;# 
   549     039E                     	;# 
   550     039F                     	;# 
   551     0415                     	;# 
   552     0416                     	;# 
   553     0417                     	;# 
   554     041C                     	;# 
   555     041D                     	;# 
   556     041E                     	;# 
   557     0FE4                     	;# 
   558     0FE5                     	;# 
   559     0FE6                     	;# 
   560     0FE7                     	;# 
   561     0FE8                     	;# 
   562     0FE9                     	;# 
   563     0FEA                     	;# 
   564     0FEB                     	;# 
   565     0FED                     	;# 
   566     0FEE                     	;# 
   567     0FEF                     	;# 
   568     0000                     	;# 
   569     0001                     	;# 
   570     0002                     	;# 
   571     0003                     	;# 
   572     0004                     	;# 
   573     0005                     	;# 
   574     0006                     	;# 
   575     0007                     	;# 
   576     0008                     	;# 
   577     0009                     	;# 
   578     000A                     	;# 
   579     000B                     	;# 
   580     000C                     	;# 
   581     000D                     	;# 
   582     0011                     	;# 
   583     0012                     	;# 
   584     0013                     	;# 
   585     0014                     	;# 
   586     0015                     	;# 
   587     0016                     	;# 
   588     0016                     	;# 
   589     0017                     	;# 
   590     0018                     	;# 
   591     0019                     	;# 
   592     001A                     	;# 
   593     001B                     	;# 
   594     001C                     	;# 
   595     001E                     	;# 
   596     001F                     	;# 
   597     008C                     	;# 
   598     008D                     	;# 
   599     0091                     	;# 
   600     0092                     	;# 
   601     0093                     	;# 
   602     0094                     	;# 
   603     0095                     	;# 
   604     0096                     	;# 
   605     0097                     	;# 
   606     0098                     	;# 
   607     0099                     	;# 
   608     009A                     	;# 
   609     009B                     	;# 
   610     009B                     	;# 
   611     009C                     	;# 
   612     009D                     	;# 
   613     009E                     	;# 
   614     010C                     	;# 
   615     010D                     	;# 
   616     0111                     	;# 
   617     0112                     	;# 
   618     0113                     	;# 
   619     0114                     	;# 
   620     0115                     	;# 
   621     0116                     	;# 
   622     0117                     	;# 
   623     0118                     	;# 
   624     0119                     	;# 
   625     011A                     	;# 
   626     011B                     	;# 
   627     011D                     	;# 
   628     011E                     	;# 
   629     018C                     	;# 
   630     018D                     	;# 
   631     0191                     	;# 
   632     0191                     	;# 
   633     0192                     	;# 
   634     0193                     	;# 
   635     0193                     	;# 
   636     0193                     	;# 
   637     0194                     	;# 
   638     0195                     	;# 
   639     0196                     	;# 
   640     0199                     	;# 
   641     019A                     	;# 
   642     019B                     	;# 
   643     019B                     	;# 
   644     019B                     	;# 
   645     019B                     	;# 
   646     019C                     	;# 
   647     019C                     	;# 
   648     019D                     	;# 
   649     019E                     	;# 
   650     019F                     	;# 
   651     020C                     	;# 
   652     020D                     	;# 
   653     0211                     	;# 
   654     0211                     	;# 
   655     0212                     	;# 
   656     0212                     	;# 
   657     0213                     	;# 
   658     0213                     	;# 
   659     0214                     	;# 
   660     0214                     	;# 
   661     0215                     	;# 
   662     0215                     	;# 
   663     0215                     	;# 
   664     0216                     	;# 
   665     0216                     	;# 
   666     0217                     	;# 
   667     0217                     	;# 
   668     0219                     	;# 
   669     021A                     	;# 
   670     021B                     	;# 
   671     021C                     	;# 
   672     021D                     	;# 
   673     021E                     	;# 
   674     021F                     	;# 
   675     0291                     	;# 
   676     0291                     	;# 
   677     0292                     	;# 
   678     0293                     	;# 
   679     0294                     	;# 
   680     0295                     	;# 
   681     0295                     	;# 
   682     0296                     	;# 
   683     0298                     	;# 
   684     0298                     	;# 
   685     0299                     	;# 
   686     029A                     	;# 
   687     029B                     	;# 
   688     029C                     	;# 
   689     029C                     	;# 
   690     029D                     	;# 
   691     029E                     	;# 
   692     029E                     	;# 
   693     0311                     	;# 
   694     0311                     	;# 
   695     0312                     	;# 
   696     0313                     	;# 
   697     0318                     	;# 
   698     0318                     	;# 
   699     0319                     	;# 
   700     031A                     	;# 
   701     0394                     	;# 
   702     0395                     	;# 
   703     0396                     	;# 
   704     039A                     	;# 
   705     039C                     	;# 
   706     039D                     	;# 
   707     039E                     	;# 
   708     039F                     	;# 
   709     0415                     	;# 
   710     0416                     	;# 
   711     0417                     	;# 
   712     041C                     	;# 
   713     041D                     	;# 
   714     041E                     	;# 
   715     0FE4                     	;# 
   716     0FE5                     	;# 
   717     0FE6                     	;# 
   718     0FE7                     	;# 
   719     0FE8                     	;# 
   720     0FE9                     	;# 
   721     0FEA                     	;# 
   722     0FEB                     	;# 
   723     0FED                     	;# 
   724     0FEE                     	;# 
   725     0FEF                     	;# 
   726     0000                     	;# 
   727     0001                     	;# 
   728     0002                     	;# 
   729     0003                     	;# 
   730     0004                     	;# 
   731     0005                     	;# 
   732     0006                     	;# 
   733     0007                     	;# 
   734     0008                     	;# 
   735     0009                     	;# 
   736     000A                     	;# 
   737     000B                     	;# 
   738     000C                     	;# 
   739     000D                     	;# 
   740     0011                     	;# 
   741     0012                     	;# 
   742     0013                     	;# 
   743     0014                     	;# 
   744     0015                     	;# 
   745     0016                     	;# 
   746     0016                     	;# 
   747     0017                     	;# 
   748     0018                     	;# 
   749     0019                     	;# 
   750     001A                     	;# 
   751     001B                     	;# 
   752     001C                     	;# 
   753     001E                     	;# 
   754     001F                     	;# 
   755     008C                     	;# 
   756     008D                     	;# 
   757     0091                     	;# 
   758     0092                     	;# 
   759     0093                     	;# 
   760     0094                     	;# 
   761     0095                     	;# 
   762     0096                     	;# 
   763     0097                     	;# 
   764     0098                     	;# 
   765     0099                     	;# 
   766     009A                     	;# 
   767     009B                     	;# 
   768     009B                     	;# 
   769     009C                     	;# 
   770     009D                     	;# 
   771     009E                     	;# 
   772     010C                     	;# 
   773     010D                     	;# 
   774     0111                     	;# 
   775     0112                     	;# 
   776     0113                     	;# 
   777     0114                     	;# 
   778     0115                     	;# 
   779     0116                     	;# 
   780     0117                     	;# 
   781     0118                     	;# 
   782     0119                     	;# 
   783     011A                     	;# 
   784     011B                     	;# 
   785     011D                     	;# 
   786     011E                     	;# 
   787     018C                     	;# 
   788     018D                     	;# 
   789     0191                     	;# 
   790     0191                     	;# 
   791     0192                     	;# 
   792     0193                     	;# 
   793     0193                     	;# 
   794     0193                     	;# 
   795     0194                     	;# 
   796     0195                     	;# 
   797     0196                     	;# 
   798     0199                     	;# 
   799     019A                     	;# 
   800     019B                     	;# 
   801     019B                     	;# 
   802     019B                     	;# 
   803     019B                     	;# 
   804     019C                     	;# 
   805     019C                     	;# 
   806     019D                     	;# 
   807     019E                     	;# 
   808     019F                     	;# 
   809     020C                     	;# 
   810     020D                     	;# 
   811     0211                     	;# 
   812     0211                     	;# 
   813     0212                     	;# 
   814     0212                     	;# 
   815     0213                     	;# 
   816     0213                     	;# 
   817     0214                     	;# 
   818     0214                     	;# 
   819     0215                     	;# 
   820     0215                     	;# 
   821     0215                     	;# 
   822     0216                     	;# 
   823     0216                     	;# 
   824     0217                     	;# 
   825     0217                     	;# 
   826     0219                     	;# 
   827     021A                     	;# 
   828     021B                     	;# 
   829     021C                     	;# 
   830     021D                     	;# 
   831     021E                     	;# 
   832     021F                     	;# 
   833     0291                     	;# 
   834     0291                     	;# 
   835     0292                     	;# 
   836     0293                     	;# 
   837     0294                     	;# 
   838     0295                     	;# 
   839     0295                     	;# 
   840     0296                     	;# 
   841     0298                     	;# 
   842     0298                     	;# 
   843     0299                     	;# 
   844     029A                     	;# 
   845     029B                     	;# 
   846     029C                     	;# 
   847     029C                     	;# 
   848     029D                     	;# 
   849     029E                     	;# 
   850     029E                     	;# 
   851     0311                     	;# 
   852     0311                     	;# 
   853     0312                     	;# 
   854     0313                     	;# 
   855     0318                     	;# 
   856     0318                     	;# 
   857     0319                     	;# 
   858     031A                     	;# 
   859     0394                     	;# 
   860     0395                     	;# 
   861     0396                     	;# 
   862     039A                     	;# 
   863     039C                     	;# 
   864     039D                     	;# 
   865     039E                     	;# 
   866     039F                     	;# 
   867     0415                     	;# 
   868     0416                     	;# 
   869     0417                     	;# 
   870     041C                     	;# 
   871     041D                     	;# 
   872     041E                     	;# 
   873     0FE4                     	;# 
   874     0FE5                     	;# 
   875     0FE6                     	;# 
   876     0FE7                     	;# 
   877     0FE8                     	;# 
   878     0FE9                     	;# 
   879     0FEA                     	;# 
   880     0FEB                     	;# 
   881     0FED                     	;# 
   882     0FEE                     	;# 
   883     0FEF                     	;# 
   884     0000                     	;# 
   885     0001                     	;# 
   886     0002                     	;# 
   887     0003                     	;# 
   888     0004                     	;# 
   889     0005                     	;# 
   890     0006                     	;# 
   891     0007                     	;# 
   892     0008                     	;# 
   893     0009                     	;# 
   894     000A                     	;# 
   895     000B                     	;# 
   896     000C                     	;# 
   897     000D                     	;# 
   898     0011                     	;# 
   899     0012                     	;# 
   900     0013                     	;# 
   901     0014                     	;# 
   902     0015                     	;# 
   903     0016                     	;# 
   904     0016                     	;# 
   905     0017                     	;# 
   906     0018                     	;# 
   907     0019                     	;# 
   908     001A                     	;# 
   909     001B                     	;# 
   910     001C                     	;# 
   911     001E                     	;# 
   912     001F                     	;# 
   913     008C                     	;# 
   914     008D                     	;# 
   915     0091                     	;# 
   916     0092                     	;# 
   917     0093                     	;# 
   918     0094                     	;# 
   919     0095                     	;# 
   920     0096                     	;# 
   921     0097                     	;# 
   922     0098                     	;# 
   923     0099                     	;# 
   924     009A                     	;# 
   925     009B                     	;# 
   926     009B                     	;# 
   927     009C                     	;# 
   928     009D                     	;# 
   929     009E                     	;# 
   930     010C                     	;# 
   931     010D                     	;# 
   932     0111                     	;# 
   933     0112                     	;# 
   934     0113                     	;# 
   935     0114                     	;# 
   936     0115                     	;# 
   937     0116                     	;# 
   938     0117                     	;# 
   939     0118                     	;# 
   940     0119                     	;# 
   941     011A                     	;# 
   942     011B                     	;# 
   943     011D                     	;# 
   944     011E                     	;# 
   945     018C                     	;# 
   946     018D                     	;# 
   947     0191                     	;# 
   948     0191                     	;# 
   949     0192                     	;# 
   950     0193                     	;# 
   951     0193                     	;# 
   952     0193                     	;# 
   953     0194                     	;# 
   954     0195                     	;# 
   955     0196                     	;# 
   956     0199                     	;# 
   957     019A                     	;# 
   958     019B                     	;# 
   959     019B                     	;# 
   960     019B                     	;# 
   961     019B                     	;# 
   962     019C                     	;# 
   963     019C                     	;# 
   964     019D                     	;# 
   965     019E                     	;# 
   966     019F                     	;# 
   967     020C                     	;# 
   968     020D                     	;# 
   969     0211                     	;# 
   970     0211                     	;# 
   971     0212                     	;# 
   972     0212                     	;# 
   973     0213                     	;# 
   974     0213                     	;# 
   975     0214                     	;# 
   976     0214                     	;# 
   977     0215                     	;# 
   978     0215                     	;# 
   979     0215                     	;# 
   980     0216                     	;# 
   981     0216                     	;# 
   982     0217                     	;# 
   983     0217                     	;# 
   984     0219                     	;# 
   985     021A                     	;# 
   986     021B                     	;# 
   987     021C                     	;# 
   988     021D                     	;# 
   989     021E                     	;# 
   990     021F                     	;# 
   991     0291                     	;# 
   992     0291                     	;# 
   993     0292                     	;# 
   994     0293                     	;# 
   995     0294                     	;# 
   996     0295                     	;# 
   997     0295                     	;# 
   998     0296                     	;# 
   999     0298                     	;# 
  1000     0298                     	;# 
  1001     0299                     	;# 
  1002     029A                     	;# 
  1003     029B                     	;# 
  1004     029C                     	;# 
  1005     029C                     	;# 
  1006     029D                     	;# 
  1007     029E                     	;# 
  1008     029E                     	;# 
  1009     0311                     	;# 
  1010     0311                     	;# 
  1011     0312                     	;# 
  1012     0313                     	;# 
  1013     0318                     	;# 
  1014     0318                     	;# 
  1015     0319                     	;# 
  1016     031A                     	;# 
  1017     0394                     	;# 
  1018     0395                     	;# 
  1019     0396                     	;# 
  1020     039A                     	;# 
  1021     039C                     	;# 
  1022     039D                     	;# 
  1023     039E                     	;# 
  1024     039F                     	;# 
  1025     0415                     	;# 
  1026     0416                     	;# 
  1027     0417                     	;# 
  1028     041C                     	;# 
  1029     041D                     	;# 
  1030     041E                     	;# 
  1031     0FE4                     	;# 
  1032     0FE5                     	;# 
  1033     0FE6                     	;# 
  1034     0FE7                     	;# 
  1035     0FE8                     	;# 
  1036     0FE9                     	;# 
  1037     0FEA                     	;# 
  1038     0FEB                     	;# 
  1039     0FED                     	;# 
  1040     0FEE                     	;# 
  1041     0FEF                     	;# 
  1042     0000                     	;# 
  1043     0001                     	;# 
  1044     0002                     	;# 
  1045     0003                     	;# 
  1046     0004                     	;# 
  1047     0005                     	;# 
  1048     0006                     	;# 
  1049     0007                     	;# 
  1050     0008                     	;# 
  1051     0009                     	;# 
  1052     000A                     	;# 
  1053     000B                     	;# 
  1054     000C                     	;# 
  1055     000D                     	;# 
  1056     0011                     	;# 
  1057     0012                     	;# 
  1058     0013                     	;# 
  1059     0014                     	;# 
  1060     0015                     	;# 
  1061     0016                     	;# 
  1062     0016                     	;# 
  1063     0017                     	;# 
  1064     0018                     	;# 
  1065     0019                     	;# 
  1066     001A                     	;# 
  1067     001B                     	;# 
  1068     001C                     	;# 
  1069     001E                     	;# 
  1070     001F                     	;# 
  1071     008C                     	;# 
  1072     008D                     	;# 
  1073     0091                     	;# 
  1074     0092                     	;# 
  1075     0093                     	;# 
  1076     0094                     	;# 
  1077     0095                     	;# 
  1078     0096                     	;# 
  1079     0097                     	;# 
  1080     0098                     	;# 
  1081     0099                     	;# 
  1082     009A                     	;# 
  1083     009B                     	;# 
  1084     009B                     	;# 
  1085     009C                     	;# 
  1086     009D                     	;# 
  1087     009E                     	;# 
  1088     010C                     	;# 
  1089     010D                     	;# 
  1090     0111                     	;# 
  1091     0112                     	;# 
  1092     0113                     	;# 
  1093     0114                     	;# 
  1094     0115                     	;# 
  1095     0116                     	;# 
  1096     0117                     	;# 
  1097     0118                     	;# 
  1098     0119                     	;# 
  1099     011A                     	;# 
  1100     011B                     	;# 
  1101     011D                     	;# 
  1102     011E                     	;# 
  1103     018C                     	;# 
  1104     018D                     	;# 
  1105     0191                     	;# 
  1106     0191                     	;# 
  1107     0192                     	;# 
  1108     0193                     	;# 
  1109     0193                     	;# 
  1110     0193                     	;# 
  1111     0194                     	;# 
  1112     0195                     	;# 
  1113     0196                     	;# 
  1114     0199                     	;# 
  1115     019A                     	;# 
  1116     019B                     	;# 
  1117     019B                     	;# 
  1118     019B                     	;# 
  1119     019B                     	;# 
  1120     019C                     	;# 
  1121     019C                     	;# 
  1122     019D                     	;# 
  1123     019E                     	;# 
  1124     019F                     	;# 
  1125     020C                     	;# 
  1126     020D                     	;# 
  1127     0211                     	;# 
  1128     0211                     	;# 
  1129     0212                     	;# 
  1130     0212                     	;# 
  1131     0213                     	;# 
  1132     0213                     	;# 
  1133     0214                     	;# 
  1134     0214                     	;# 
  1135     0215                     	;# 
  1136     0215                     	;# 
  1137     0215                     	;# 
  1138     0216                     	;# 
  1139     0216                     	;# 
  1140     0217                     	;# 
  1141     0217                     	;# 
  1142     0219                     	;# 
  1143     021A                     	;# 
  1144     021B                     	;# 
  1145     021C                     	;# 
  1146     021D                     	;# 
  1147     021E                     	;# 
  1148     021F                     	;# 
  1149     0291                     	;# 
  1150     0291                     	;# 
  1151     0292                     	;# 
  1152     0293                     	;# 
  1153     0294                     	;# 
  1154     0295                     	;# 
  1155     0295                     	;# 
  1156     0296                     	;# 
  1157     0298                     	;# 
  1158     0298                     	;# 
  1159     0299                     	;# 
  1160     029A                     	;# 
  1161     029B                     	;# 
  1162     029C                     	;# 
  1163     029C                     	;# 
  1164     029D                     	;# 
  1165     029E                     	;# 
  1166     029E                     	;# 
  1167     0311                     	;# 
  1168     0311                     	;# 
  1169     0312                     	;# 
  1170     0313                     	;# 
  1171     0318                     	;# 
  1172     0318                     	;# 
  1173     0319                     	;# 
  1174     031A                     	;# 
  1175     0394                     	;# 
  1176     0395                     	;# 
  1177     0396                     	;# 
  1178     039A                     	;# 
  1179     039C                     	;# 
  1180     039D                     	;# 
  1181     039E                     	;# 
  1182     039F                     	;# 
  1183     0415                     	;# 
  1184     0416                     	;# 
  1185     0417                     	;# 
  1186     041C                     	;# 
  1187     041D                     	;# 
  1188     041E                     	;# 
  1189     0FE4                     	;# 
  1190     0FE5                     	;# 
  1191     0FE6                     	;# 
  1192     0FE7                     	;# 
  1193     0FE8                     	;# 
  1194     0FE9                     	;# 
  1195     0FEA                     	;# 
  1196     0FEB                     	;# 
  1197     0FED                     	;# 
  1198     0FEE                     	;# 
  1199     0FEF                     	;# 
  1200     0000                     	;# 
  1201     0001                     	;# 
  1202     0002                     	;# 
  1203     0003                     	;# 
  1204     0004                     	;# 
  1205     0005                     	;# 
  1206     0006                     	;# 
  1207     0007                     	;# 
  1208     0008                     	;# 
  1209     0009                     	;# 
  1210     000A                     	;# 
  1211     000B                     	;# 
  1212     000C                     	;# 
  1213     000D                     	;# 
  1214     0011                     	;# 
  1215     0012                     	;# 
  1216     0013                     	;# 
  1217     0014                     	;# 
  1218     0015                     	;# 
  1219     0016                     	;# 
  1220     0016                     	;# 
  1221     0017                     	;# 
  1222     0018                     	;# 
  1223     0019                     	;# 
  1224     001A                     	;# 
  1225     001B                     	;# 
  1226     001C                     	;# 
  1227     001E                     	;# 
  1228     001F                     	;# 
  1229     008C                     	;# 
  1230     008D                     	;# 
  1231     0091                     	;# 
  1232     0092                     	;# 
  1233     0093                     	;# 
  1234     0094                     	;# 
  1235     0095                     	;# 
  1236     0096                     	;# 
  1237     0097                     	;# 
  1238     0098                     	;# 
  1239     0099                     	;# 
  1240     009A                     	;# 
  1241     009B                     	;# 
  1242     009B                     	;# 
  1243     009C                     	;# 
  1244     009D                     	;# 
  1245     009E                     	;# 
  1246     010C                     	;# 
  1247     010D                     	;# 
  1248     0111                     	;# 
  1249     0112                     	;# 
  1250     0113                     	;# 
  1251     0114                     	;# 
  1252     0115                     	;# 
  1253     0116                     	;# 
  1254     0117                     	;# 
  1255     0118                     	;# 
  1256     0119                     	;# 
  1257     011A                     	;# 
  1258     011B                     	;# 
  1259     011D                     	;# 
  1260     011E                     	;# 
  1261     018C                     	;# 
  1262     018D                     	;# 
  1263     0191                     	;# 
  1264     0191                     	;# 
  1265     0192                     	;# 
  1266     0193                     	;# 
  1267     0193                     	;# 
  1268     0193                     	;# 
  1269     0194                     	;# 
  1270     0195                     	;# 
  1271     0196                     	;# 
  1272     0199                     	;# 
  1273     019A                     	;# 
  1274     019B                     	;# 
  1275     019B                     	;# 
  1276     019B                     	;# 
  1277     019B                     	;# 
  1278     019C                     	;# 
  1279     019C                     	;# 
  1280     019D                     	;# 
  1281     019E                     	;# 
  1282     019F                     	;# 
  1283     020C                     	;# 
  1284     020D                     	;# 
  1285     0211                     	;# 
  1286     0211                     	;# 
  1287     0212                     	;# 
  1288     0212                     	;# 
  1289     0213                     	;# 
  1290     0213                     	;# 
  1291     0214                     	;# 
  1292     0214                     	;# 
  1293     0215                     	;# 
  1294     0215                     	;# 
  1295     0215                     	;# 
  1296     0216                     	;# 
  1297     0216                     	;# 
  1298     0217                     	;# 
  1299     0217                     	;# 
  1300     0219                     	;# 
  1301     021A                     	;# 
  1302     021B                     	;# 
  1303     021C                     	;# 
  1304     021D                     	;# 
  1305     021E                     	;# 
  1306     021F                     	;# 
  1307     0291                     	;# 
  1308     0291                     	;# 
  1309     0292                     	;# 
  1310     0293                     	;# 
  1311     0294                     	;# 
  1312     0295                     	;# 
  1313     0295                     	;# 
  1314     0296                     	;# 
  1315     0298                     	;# 
  1316     0298                     	;# 
  1317     0299                     	;# 
  1318     029A                     	;# 
  1319     029B                     	;# 
  1320     029C                     	;# 
  1321     029C                     	;# 
  1322     029D                     	;# 
  1323     029E                     	;# 
  1324     029E                     	;# 
  1325     0311                     	;# 
  1326     0311                     	;# 
  1327     0312                     	;# 
  1328     0313                     	;# 
  1329     0318                     	;# 
  1330     0318                     	;# 
  1331     0319                     	;# 
  1332     031A                     	;# 
  1333     0394                     	;# 
  1334     0395                     	;# 
  1335     0396                     	;# 
  1336     039A                     	;# 
  1337     039C                     	;# 
  1338     039D                     	;# 
  1339     039E                     	;# 
  1340     039F                     	;# 
  1341     0415                     	;# 
  1342     0416                     	;# 
  1343     0417                     	;# 
  1344     041C                     	;# 
  1345     041D                     	;# 
  1346     041E                     	;# 
  1347     0FE4                     	;# 
  1348     0FE5                     	;# 
  1349     0FE6                     	;# 
  1350     0FE7                     	;# 
  1351     0FE8                     	;# 
  1352     0FE9                     	;# 
  1353     0FEA                     	;# 
  1354     0FEB                     	;# 
  1355     0FED                     	;# 
  1356     0FEE                     	;# 
  1357     0FEF                     	;# 
  1358     0000                     	;# 
  1359     0001                     	;# 
  1360     0002                     	;# 
  1361     0003                     	;# 
  1362     0004                     	;# 
  1363     0005                     	;# 
  1364     0006                     	;# 
  1365     0007                     	;# 
  1366     0008                     	;# 
  1367     0009                     	;# 
  1368     000A                     	;# 
  1369     000B                     	;# 
  1370     000C                     	;# 
  1371     000D                     	;# 
  1372     0011                     	;# 
  1373     0012                     	;# 
  1374     0013                     	;# 
  1375     0014                     	;# 
  1376     0015                     	;# 
  1377     0016                     	;# 
  1378     0016                     	;# 
  1379     0017                     	;# 
  1380     0018                     	;# 
  1381     0019                     	;# 
  1382     001A                     	;# 
  1383     001B                     	;# 
  1384     001C                     	;# 
  1385     001E                     	;# 
  1386     001F                     	;# 
  1387     008C                     	;# 
  1388     008D                     	;# 
  1389     0091                     	;# 
  1390     0092                     	;# 
  1391     0093                     	;# 
  1392     0094                     	;# 
  1393     0095                     	;# 
  1394     0096                     	;# 
  1395     0097                     	;# 
  1396     0098                     	;# 
  1397     0099                     	;# 
  1398     009A                     	;# 
  1399     009B                     	;# 
  1400     009B                     	;# 
  1401     009C                     	;# 
  1402     009D                     	;# 
  1403     009E                     	;# 
  1404     010C                     	;# 
  1405     010D                     	;# 
  1406     0111                     	;# 
  1407     0112                     	;# 
  1408     0113                     	;# 
  1409     0114                     	;# 
  1410     0115                     	;# 
  1411     0116                     	;# 
  1412     0117                     	;# 
  1413     0118                     	;# 
  1414     0119                     	;# 
  1415     011A                     	;# 
  1416     011B                     	;# 
  1417     011D                     	;# 
  1418     011E                     	;# 
  1419     018C                     	;# 
  1420     018D                     	;# 
  1421     0191                     	;# 
  1422     0191                     	;# 
  1423     0192                     	;# 
  1424     0193                     	;# 
  1425     0193                     	;# 
  1426     0193                     	;# 
  1427     0194                     	;# 
  1428     0195                     	;# 
  1429     0196                     	;# 
  1430     0199                     	;# 
  1431     019A                     	;# 
  1432     019B                     	;# 
  1433     019B                     	;# 
  1434     019B                     	;# 
  1435     019B                     	;# 
  1436     019C                     	;# 
  1437     019C                     	;# 
  1438     019D                     	;# 
  1439     019E                     	;# 
  1440     019F                     	;# 
  1441     020C                     	;# 
  1442     020D                     	;# 
  1443     0211                     	;# 
  1444     0211                     	;# 
  1445     0212                     	;# 
  1446     0212                     	;# 
  1447     0213                     	;# 
  1448     0213                     	;# 
  1449     0214                     	;# 
  1450     0214                     	;# 
  1451     0215                     	;# 
  1452     0215                     	;# 
  1453     0215                     	;# 
  1454     0216                     	;# 
  1455     0216                     	;# 
  1456     0217                     	;# 
  1457     0217                     	;# 
  1458     0219                     	;# 
  1459     021A                     	;# 
  1460     021B                     	;# 
  1461     021C                     	;# 
  1462     021D                     	;# 
  1463     021E                     	;# 
  1464     021F                     	;# 
  1465     0291                     	;# 
  1466     0291                     	;# 
  1467     0292                     	;# 
  1468     0293                     	;# 
  1469     0294                     	;# 
  1470     0295                     	;# 
  1471     0295                     	;# 
  1472     0296                     	;# 
  1473     0298                     	;# 
  1474     0298                     	;# 
  1475     0299                     	;# 
  1476     029A                     	;# 
  1477     029B                     	;# 
  1478     029C                     	;# 
  1479     029C                     	;# 
  1480     029D                     	;# 
  1481     029E                     	;# 
  1482     029E                     	;# 
  1483     0311                     	;# 
  1484     0311                     	;# 
  1485     0312                     	;# 
  1486     0313                     	;# 
  1487     0318                     	;# 
  1488     0318                     	;# 
  1489     0319                     	;# 
  1490     031A                     	;# 
  1491     0394                     	;# 
  1492     0395                     	;# 
  1493     0396                     	;# 
  1494     039A                     	;# 
  1495     039C                     	;# 
  1496     039D                     	;# 
  1497     039E                     	;# 
  1498     039F                     	;# 
  1499     0415                     	;# 
  1500     0416                     	;# 
  1501     0417                     	;# 
  1502     041C                     	;# 
  1503     041D                     	;# 
  1504     041E                     	;# 
  1505     0FE4                     	;# 
  1506     0FE5                     	;# 
  1507     0FE6                     	;# 
  1508     0FE7                     	;# 
  1509     0FE8                     	;# 
  1510     0FE9                     	;# 
  1511     0FEA                     	;# 
  1512     0FEB                     	;# 
  1513     0FED                     	;# 
  1514     0FEE                     	;# 
  1515     0FEF                     	;# 
  1516     0000                     	;# 
  1517     0001                     	;# 
  1518     0002                     	;# 
  1519     0003                     	;# 
  1520     0004                     	;# 
  1521     0005                     	;# 
  1522     0006                     	;# 
  1523     0007                     	;# 
  1524     0008                     	;# 
  1525     0009                     	;# 
  1526     000A                     	;# 
  1527     000B                     	;# 
  1528     000C                     	;# 
  1529     000D                     	;# 
  1530     0011                     	;# 
  1531     0012                     	;# 
  1532     0013                     	;# 
  1533     0014                     	;# 
  1534     0015                     	;# 
  1535     0016                     	;# 
  1536     0016                     	;# 
  1537     0017                     	;# 
  1538     0018                     	;# 
  1539     0019                     	;# 
  1540     001A                     	;# 
  1541     001B                     	;# 
  1542     001C                     	;# 
  1543     001E                     	;# 
  1544     001F                     	;# 
  1545     008C                     	;# 
  1546     008D                     	;# 
  1547     0091                     	;# 
  1548     0092                     	;# 
  1549     0093                     	;# 
  1550     0094                     	;# 
  1551     0095                     	;# 
  1552     0096                     	;# 
  1553     0097                     	;# 
  1554     0098                     	;# 
  1555     0099                     	;# 
  1556     009A                     	;# 
  1557     009B                     	;# 
  1558     009B                     	;# 
  1559     009C                     	;# 
  1560     009D                     	;# 
  1561     009E                     	;# 
  1562     010C                     	;# 
  1563     010D                     	;# 
  1564     0111                     	;# 
  1565     0112                     	;# 
  1566     0113                     	;# 
  1567     0114                     	;# 
  1568     0115                     	;# 
  1569     0116                     	;# 
  1570     0117                     	;# 
  1571     0118                     	;# 
  1572     0119                     	;# 
  1573     011A                     	;# 
  1574     011B                     	;# 
  1575     011D                     	;# 
  1576     011E                     	;# 
  1577     018C                     	;# 
  1578     018D                     	;# 
  1579     0191                     	;# 
  1580     0191                     	;# 
  1581     0192                     	;# 
  1582     0193                     	;# 
  1583     0193                     	;# 
  1584     0193                     	;# 
  1585     0194                     	;# 
  1586     0195                     	;# 
  1587     0196                     	;# 
  1588     0199                     	;# 
  1589     019A                     	;# 
  1590     019B                     	;# 
  1591     019B                     	;# 
  1592     019B                     	;# 
  1593     019B                     	;# 
  1594     019C                     	;# 
  1595     019C                     	;# 
  1596     019D                     	;# 
  1597     019E                     	;# 
  1598     019F                     	;# 
  1599     020C                     	;# 
  1600     020D                     	;# 
  1601     0211                     	;# 
  1602     0211                     	;# 
  1603     0212                     	;# 
  1604     0212                     	;# 
  1605     0213                     	;# 
  1606     0213                     	;# 
  1607     0214                     	;# 
  1608     0214                     	;# 
  1609     0215                     	;# 
  1610     0215                     	;# 
  1611     0215                     	;# 
  1612     0216                     	;# 
  1613     0216                     	;# 
  1614     0217                     	;# 
  1615     0217                     	;# 
  1616     0219                     	;# 
  1617     021A                     	;# 
  1618     021B                     	;# 
  1619     021C                     	;# 
  1620     021D                     	;# 
  1621     021E                     	;# 
  1622     021F                     	;# 
  1623     0291                     	;# 
  1624     0291                     	;# 
  1625     0292                     	;# 
  1626     0293                     	;# 
  1627     0294                     	;# 
  1628     0295                     	;# 
  1629     0295                     	;# 
  1630     0296                     	;# 
  1631     0298                     	;# 
  1632     0298                     	;# 
  1633     0299                     	;# 
  1634     029A                     	;# 
  1635     029B                     	;# 
  1636     029C                     	;# 
  1637     029C                     	;# 
  1638     029D                     	;# 
  1639     029E                     	;# 
  1640     029E                     	;# 
  1641     0311                     	;# 
  1642     0311                     	;# 
  1643     0312                     	;# 
  1644     0313                     	;# 
  1645     0318                     	;# 
  1646     0318                     	;# 
  1647     0319                     	;# 
  1648     031A                     	;# 
  1649     0394                     	;# 
  1650     0395                     	;# 
  1651     0396                     	;# 
  1652     039A                     	;# 
  1653     039C                     	;# 
  1654     039D                     	;# 
  1655     039E                     	;# 
  1656     039F                     	;# 
  1657     0415                     	;# 
  1658     0416                     	;# 
  1659     0417                     	;# 
  1660     041C                     	;# 
  1661     041D                     	;# 
  1662     041E                     	;# 
  1663     0FE4                     	;# 
  1664     0FE5                     	;# 
  1665     0FE6                     	;# 
  1666     0FE7                     	;# 
  1667     0FE8                     	;# 
  1668     0FE9                     	;# 
  1669     0FEA                     	;# 
  1670     0FEB                     	;# 
  1671     0FED                     	;# 
  1672     0FEE                     	;# 
  1673     0FEF                     	;# 
  1674     0000                     	;# 
  1675     0001                     	;# 
  1676     0002                     	;# 
  1677     0003                     	;# 
  1678     0004                     	;# 
  1679     0005                     	;# 
  1680     0006                     	;# 
  1681     0007                     	;# 
  1682     0008                     	;# 
  1683     0009                     	;# 
  1684     000A                     	;# 
  1685     000B                     	;# 
  1686     000C                     	;# 
  1687     000D                     	;# 
  1688     0011                     	;# 
  1689     0012                     	;# 
  1690     0013                     	;# 
  1691     0014                     	;# 
  1692     0015                     	;# 
  1693     0016                     	;# 
  1694     0016                     	;# 
  1695     0017                     	;# 
  1696     0018                     	;# 
  1697     0019                     	;# 
  1698     001A                     	;# 
  1699     001B                     	;# 
  1700     001C                     	;# 
  1701     001E                     	;# 
  1702     001F                     	;# 
  1703     008C                     	;# 
  1704     008D                     	;# 
  1705     0091                     	;# 
  1706     0092                     	;# 
  1707     0093                     	;# 
  1708     0094                     	;# 
  1709     0095                     	;# 
  1710     0096                     	;# 
  1711     0097                     	;# 
  1712     0098                     	;# 
  1713     0099                     	;# 
  1714     009A                     	;# 
  1715     009B                     	;# 
  1716     009B                     	;# 
  1717     009C                     	;# 
  1718     009D                     	;# 
  1719     009E                     	;# 
  1720     010C                     	;# 
  1721     010D                     	;# 
  1722     0111                     	;# 
  1723     0112                     	;# 
  1724     0113                     	;# 
  1725     0114                     	;# 
  1726     0115                     	;# 
  1727     0116                     	;# 
  1728     0117                     	;# 
  1729     0118                     	;# 
  1730     0119                     	;# 
  1731     011A                     	;# 
  1732     011B                     	;# 
  1733     011D                     	;# 
  1734     011E                     	;# 
  1735     018C                     	;# 
  1736     018D                     	;# 
  1737     0191                     	;# 
  1738     0191                     	;# 
  1739     0192                     	;# 
  1740     0193                     	;# 
  1741     0193                     	;# 
  1742     0193                     	;# 
  1743     0194                     	;# 
  1744     0195                     	;# 
  1745     0196                     	;# 
  1746     0199                     	;# 
  1747     019A                     	;# 
  1748     019B                     	;# 
  1749     019B                     	;# 
  1750     019B                     	;# 
  1751     019B                     	;# 
  1752     019C                     	;# 
  1753     019C                     	;# 
  1754     019D                     	;# 
  1755     019E                     	;# 
  1756     019F                     	;# 
  1757     020C                     	;# 
  1758     020D                     	;# 
  1759     0211                     	;# 
  1760     0211                     	;# 
  1761     0212                     	;# 
  1762     0212                     	;# 
  1763     0213                     	;# 
  1764     0213                     	;# 
  1765     0214                     	;# 
  1766     0214                     	;# 
  1767     0215                     	;# 
  1768     0215                     	;# 
  1769     0215                     	;# 
  1770     0216                     	;# 
  1771     0216                     	;# 
  1772     0217                     	;# 
  1773     0217                     	;# 
  1774     0219                     	;# 
  1775     021A                     	;# 
  1776     021B                     	;# 
  1777     021C                     	;# 
  1778     021D                     	;# 
  1779     021E                     	;# 
  1780     021F                     	;# 
  1781     0291                     	;# 
  1782     0291                     	;# 
  1783     0292                     	;# 
  1784     0293                     	;# 
  1785     0294                     	;# 
  1786     0295                     	;# 
  1787     0295                     	;# 
  1788     0296                     	;# 
  1789     0298                     	;# 
  1790     0298                     	;# 
  1791     0299                     	;# 
  1792     029A                     	;# 
  1793     029B                     	;# 
  1794     029C                     	;# 
  1795     029C                     	;# 
  1796     029D                     	;# 
  1797     029E                     	;# 
  1798     029E                     	;# 
  1799     0311                     	;# 
  1800     0311                     	;# 
  1801     0312                     	;# 
  1802     0313                     	;# 
  1803     0318                     	;# 
  1804     0318                     	;# 
  1805     0319                     	;# 
  1806     031A                     	;# 
  1807     0394                     	;# 
  1808     0395                     	;# 
  1809     0396                     	;# 
  1810     039A                     	;# 
  1811     039C                     	;# 
  1812     039D                     	;# 
  1813     039E                     	;# 
  1814     039F                     	;# 
  1815     0415                     	;# 
  1816     0416                     	;# 
  1817     0417                     	;# 
  1818     041C                     	;# 
  1819     041D                     	;# 
  1820     041E                     	;# 
  1821     0FE4                     	;# 
  1822     0FE5                     	;# 
  1823     0FE6                     	;# 
  1824     0FE7                     	;# 
  1825     0FE8                     	;# 
  1826     0FE9                     	;# 
  1827     0FEA                     	;# 
  1828     0FEB                     	;# 
  1829     0FED                     	;# 
  1830     0FEE                     	;# 
  1831     0FEF                     	;# 
  1832     0000                     	;# 
  1833     0001                     	;# 
  1834     0002                     	;# 
  1835     0003                     	;# 
  1836     0004                     	;# 
  1837     0005                     	;# 
  1838     0006                     	;# 
  1839     0007                     	;# 
  1840     0008                     	;# 
  1841     0009                     	;# 
  1842     000A                     	;# 
  1843     000B                     	;# 
  1844     000C                     	;# 
  1845     000D                     	;# 
  1846     0011                     	;# 
  1847     0012                     	;# 
  1848     0013                     	;# 
  1849     0014                     	;# 
  1850     0015                     	;# 
  1851     0016                     	;# 
  1852     0016                     	;# 
  1853     0017                     	;# 
  1854     0018                     	;# 
  1855     0019                     	;# 
  1856     001A                     	;# 
  1857     001B                     	;# 
  1858     001C                     	;# 
  1859     001E                     	;# 
  1860     001F                     	;# 
  1861     008C                     	;# 
  1862     008D                     	;# 
  1863     0091                     	;# 
  1864     0092                     	;# 
  1865     0093                     	;# 
  1866     0094                     	;# 
  1867     0095                     	;# 
  1868     0096                     	;# 
  1869     0097                     	;# 
  1870     0098                     	;# 
  1871     0099                     	;# 
  1872     009A                     	;# 
  1873     009B                     	;# 
  1874     009B                     	;# 
  1875     009C                     	;# 
  1876     009D                     	;# 
  1877     009E                     	;# 
  1878     010C                     	;# 
  1879     010D                     	;# 
  1880     0111                     	;# 
  1881     0112                     	;# 
  1882     0113                     	;# 
  1883     0114                     	;# 
  1884     0115                     	;# 
  1885     0116                     	;# 
  1886     0117                     	;# 
  1887     0118                     	;# 
  1888     0119                     	;# 
  1889     011A                     	;# 
  1890     011B                     	;# 
  1891     011D                     	;# 
  1892     011E                     	;# 
  1893     018C                     	;# 
  1894     018D                     	;# 
  1895     0191                     	;# 
  1896     0191                     	;# 
  1897     0192                     	;# 
  1898     0193                     	;# 
  1899     0193                     	;# 
  1900     0193                     	;# 
  1901     0194                     	;# 
  1902     0195                     	;# 
  1903     0196                     	;# 
  1904     0199                     	;# 
  1905     019A                     	;# 
  1906     019B                     	;# 
  1907     019B                     	;# 
  1908     019B                     	;# 
  1909     019B                     	;# 
  1910     019C                     	;# 
  1911     019C                     	;# 
  1912     019D                     	;# 
  1913     019E                     	;# 
  1914     019F                     	;# 
  1915     020C                     	;# 
  1916     020D                     	;# 
  1917     0211                     	;# 
  1918     0211                     	;# 
  1919     0212                     	;# 
  1920     0212                     	;# 
  1921     0213                     	;# 
  1922     0213                     	;# 
  1923     0214                     	;# 
  1924     0214                     	;# 
  1925     0215                     	;# 
  1926     0215                     	;# 
  1927     0215                     	;# 
  1928     0216                     	;# 
  1929     0216                     	;# 
  1930     0217                     	;# 
  1931     0217                     	;# 
  1932     0219                     	;# 
  1933     021A                     	;# 
  1934     021B                     	;# 
  1935     021C                     	;# 
  1936     021D                     	;# 
  1937     021E                     	;# 
  1938     021F                     	;# 
  1939     0291                     	;# 
  1940     0291                     	;# 
  1941     0292                     	;# 
  1942     0293                     	;# 
  1943     0294                     	;# 
  1944     0295                     	;# 
  1945     0295                     	;# 
  1946     0296                     	;# 
  1947     0298                     	;# 
  1948     0298                     	;# 
  1949     0299                     	;# 
  1950     029A                     	;# 
  1951     029B                     	;# 
  1952     029C                     	;# 
  1953     029C                     	;# 
  1954     029D                     	;# 
  1955     029E                     	;# 
  1956     029E                     	;# 
  1957     0311                     	;# 
  1958     0311                     	;# 
  1959     0312                     	;# 
  1960     0313                     	;# 
  1961     0318                     	;# 
  1962     0318                     	;# 
  1963     0319                     	;# 
  1964     031A                     	;# 
  1965     0394                     	;# 
  1966     0395                     	;# 
  1967     0396                     	;# 
  1968     039A                     	;# 
  1969     039C                     	;# 
  1970     039D                     	;# 
  1971     039E                     	;# 
  1972     039F                     	;# 
  1973     0415                     	;# 
  1974     0416                     	;# 
  1975     0417                     	;# 
  1976     041C                     	;# 
  1977     041D                     	;# 
  1978     041E                     	;# 
  1979     0FE4                     	;# 
  1980     0FE5                     	;# 
  1981     0FE6                     	;# 
  1982     0FE7                     	;# 
  1983     0FE8                     	;# 
  1984     0FE9                     	;# 
  1985     0FEA                     	;# 
  1986     0FEB                     	;# 
  1987     0FED                     	;# 
  1988     0FEE                     	;# 
  1989     0FEF                     	;# 
  1990                           
  1991 ;; Function _EUSART_DefaultFramingErrorHandler is unused but had its address taken
  1992     0000                     
  1993 ;; Function _EUSART_DefaultOverrunErrorHandler is unused but had its address taken
  1994     0000                     
  1995 ;; Function _EUSART_DefaultErrorHandler is unused but had its address taken
  1996     0000                     
  1997                           	psect	nvBANK1
  1998     00CF                     __pnvBANK1:
  1999     00CF                     _TMR2_InterruptHandler:
  2000     00CF                     	ds	2
  2001     00D1                     _ADC_InterruptHandler:
  2002     00D1                     	ds	2
  2003     00D3                     _EUSART_ErrorHandler:
  2004     00D3                     	ds	2
  2005     00D5                     _EUSART_OverrunErrorHandler:
  2006     00D5                     	ds	2
  2007     00D7                     _EUSART_FramingErrorHandler:
  2008     00D7                     	ds	2
  2009     000B                     _INTCONbits	set	11
  2010     001C                     _T2CONbits	set	28
  2011     001C                     _T2CON	set	28
  2012     001A                     _TMR2	set	26
  2013     001B                     _PR2	set	27
  2014     0011                     _PIR1bits	set	17
  2015     009D                     _ADCON0bits	set	157
  2016     0091                     _PIE1bits	set	145
  2017     009D                     _ADCON0	set	157
  2018     009C                     _ADRESH	set	156
  2019     009B                     _ADRESL	set	155
  2020     009E                     _ADCON1	set	158
  2021     0095                     _OPTION_REGbits	set	149
  2022     008D                     _TRISB	set	141
  2023     008C                     _TRISA	set	140
  2024     0097                     _WDTCON	set	151
  2025     0098                     _OSCTUNE	set	152
  2026     0099                     _OSCCON	set	153
  2027     010C                     _LATAbits	set	268
  2028     010D                     _LATBbits	set	269
  2029     0117                     _FVRCONbits	set	279
  2030     0117                     _FVRCON	set	279
  2031     011E                     _APFCON1	set	286
  2032     011D                     _APFCON0	set	285
  2033     010D                     _LATB	set	269
  2034     010C                     _LATA	set	268
  2035     0116                     _BORCON	set	278
  2036     019A                     _TXREG	set	410
  2037     0199                     _RCREG	set	409
  2038     019D                     _RCSTAbits	set	413
  2039     019E                     _TXSTAbits	set	414
  2040     019C                     _SPBRGH	set	412
  2041     019B                     _SPBRGL	set	411
  2042     019E                     _TXSTA	set	414
  2043     019D                     _RCSTA	set	413
  2044     019F                     _BAUDCON	set	415
  2045     018C                     _ANSELA	set	396
  2046     018D                     _ANSELB	set	397
  2047     020C                     _WPUA	set	524
  2048     020D                     _WPUB	set	525
  2049                           
  2050                           	psect	cinit
  2051     002A                     start_initialization:	
  2052                           ; #config settings
  2053                           
  2054     002A                     __initialization:
  2055                           
  2056                           ; Clear objects allocated to BANK1
  2057     002A  0021               	movlb	1	; select bank1
  2058     002B  01C4               	clrf	__pbssBANK1& (0+127)
  2059     002C  01C5               	clrf	(__pbssBANK1+1)& (0+127)
  2060     002D  01C6               	clrf	(__pbssBANK1+2)& (0+127)
  2061     002E  01C7               	clrf	(__pbssBANK1+3)& (0+127)
  2062     002F  01C8               	clrf	(__pbssBANK1+4)& (0+127)
  2063     0030  01C9               	clrf	(__pbssBANK1+5)& (0+127)
  2064     0031  01CA               	clrf	(__pbssBANK1+6)& (0+127)
  2065     0032  01CB               	clrf	(__pbssBANK1+7)& (0+127)
  2066     0033  01CC               	clrf	(__pbssBANK1+8)& (0+127)
  2067     0034  01CD               	clrf	(__pbssBANK1+9)& (0+127)
  2068     0035  01CE               	clrf	(__pbssBANK1+10)& (0+127)
  2069     0036                     end_of_initialization:	
  2070                           ;End of C runtime variable initialization code
  2071                           
  2072     0036                     __end_of__initialization:
  2073     0036  107E               	bcf	int$flags,0	;clear compiler interrupt flag (level 1)
  2074     0037  0020               	movlb	0
  2075     0038  318E  2ECC         	ljmp	_main	;jump to C main() function
  2076                           
  2077                           	psect	bssBANK1
  2078     00C4                     __pbssBANK1:
  2079     00C4                     _caracter:
  2080     00C4                     	ds	2
  2081     00C6                     _num_Display:
  2082     00C6                     	ds	2
  2083     00C8                     _datoadc:
  2084     00C8                     	ds	2
  2085     00CA                     _ValADC:
  2086     00CA                     	ds	2
  2087     00CC                     _VGAI_adc:
  2088     00CC                     	ds	1
  2089     00CD                     _VGAIT:
  2090     00CD                     	ds	1
  2091     00CE                     _eusartRxLastError:
  2092     00CE                     	ds	1
  2093                           
  2094                           	psect	cstackBANK1
  2095     00A0                     __pcstackBANK1:
  2096     00A0                     ??_ADC2Display:
  2097                           
  2098                           ; 1 bytes @ 0x0
  2099     00A0                     	ds	4
  2100     00A4                     _ADC2Display$1620:
  2101                           
  2102                           ; 4 bytes @ 0x4
  2103     00A4                     	ds	4
  2104     00A8                     ADC2Display@aux:
  2105                           
  2106                           ; 1 bytes @ 0x8
  2107     00A8                     	ds	1
  2108     00A9                     ADC2Display@voltios:
  2109                           
  2110                           ; 4 bytes @ 0x9
  2111     00A9                     	ds	4
  2112     00AD                     ADC2Display@dis:
  2113                           
  2114                           ; 1 bytes @ 0xD
  2115     00AD                     	ds	1
  2116     00AE                     main@timer_ADC:
  2117                           
  2118                           ; 7 bytes @ 0xE
  2119     00AE                     	ds	7
  2120     00B5                     main@miserial:
  2121                           
  2122                           ; 10 bytes @ 0x15
  2123     00B5                     	ds	10
  2124     00BF                     main@miDisplay:
  2125                           
  2126                           ; 5 bytes @ 0x1F
  2127     00BF                     	ds	5
  2128                           
  2129                           	psect	cstackCOMMON
  2130     0070                     __pcstackCOMMON:
  2131     0070                     ?_PIN_MANAGER_Initialize:
  2132     0070                     ??_PIN_MANAGER_Initialize:	
  2133                           ; 1 bytes @ 0x0
  2134                           
  2135     0070                     ?_OSCILLATOR_Initialize:	
  2136                           ; 1 bytes @ 0x0
  2137                           
  2138     0070                     ??_OSCILLATOR_Initialize:	
  2139                           ; 1 bytes @ 0x0
  2140                           
  2141     0070                     ?_WDT_Initialize:	
  2142                           ; 1 bytes @ 0x0
  2143                           
  2144     0070                     ??_WDT_Initialize:	
  2145                           ; 1 bytes @ 0x0
  2146                           
  2147     0070                     ?_FVR_Initialize:	
  2148                           ; 1 bytes @ 0x0
  2149                           
  2150     0070                     ??_FVR_Initialize:	
  2151                           ; 1 bytes @ 0x0
  2152                           
  2153     0070                     ?_ADC_Initialize:	
  2154                           ; 1 bytes @ 0x0
  2155                           
  2156     0070                     ?_TMR2_Initialize:	
  2157                           ; 1 bytes @ 0x0
  2158                           
  2159     0070                     ?_EUSART_Initialize:	
  2160                           ; 1 bytes @ 0x0
  2161                           
  2162     0070                     ?_EUSART_SetFramingErrorHandler:	
  2163                           ; 1 bytes @ 0x0
  2164                           
  2165     0070                     ?_EUSART_SetOverrunErrorHandler:	
  2166                           ; 1 bytes @ 0x0
  2167                           
  2168     0070                     ?_EUSART_SetErrorHandler:	
  2169                           ; 1 bytes @ 0x0
  2170                           
  2171     0070                     ?_ADC_SetInterruptHandler:	
  2172                           ; 1 bytes @ 0x0
  2173                           
  2174     0070                     ?_ADC_DefaultInterruptHandler:	
  2175                           ; 1 bytes @ 0x0
  2176                           
  2177     0070                     ??_ADC_DefaultInterruptHandler:	
  2178                           ; 1 bytes @ 0x0
  2179                           
  2180     0070                     ?_TMR2_SetInterruptHandler:	
  2181                           ; 1 bytes @ 0x0
  2182                           
  2183     0070                     ?_TMR2_DefaultInterruptHandler:	
  2184                           ; 1 bytes @ 0x0
  2185                           
  2186     0070                     ??_TMR2_DefaultInterruptHandler:	
  2187                           ; 1 bytes @ 0x0
  2188                           
  2189     0070                     ?_Tm_Inicie_periodico:	
  2190                           ; 1 bytes @ 0x0
  2191                           
  2192     0070                     ?_inicializar_nuestroserial:	
  2193                           ; 1 bytes @ 0x0
  2194                           
  2195     0070                     ??_inicializar_nuestroserial:	
  2196                           ; 1 bytes @ 0x0
  2197                           
  2198     0070                     ?_inicializar_nuestro_Display:	
  2199                           ; 1 bytes @ 0x0
  2200                           
  2201     0070                     ??_inicializar_nuestro_Display:	
  2202                           ; 1 bytes @ 0x0
  2203                           
  2204     0070                     ?_Tm_Procese_tiempo:	
  2205                           ; 1 bytes @ 0x0
  2206                           
  2207     0070                     ??_Tm_Procese_tiempo:	
  2208                           ; 1 bytes @ 0x0
  2209                           
  2210     0070                     ?_Tm_Hubo_periodico:	
  2211                           ; 1 bytes @ 0x0
  2212                           
  2213     0070                     ??_Tm_Hubo_periodico:	
  2214                           ; 1 bytes @ 0x0
  2215                           
  2216     0070                     ?_Tm_Baje_periodico:	
  2217                           ; 1 bytes @ 0x0
  2218                           
  2219     0070                     ??_Tm_Baje_periodico:	
  2220                           ; 1 bytes @ 0x0
  2221                           
  2222     0070                     ?_llenar_registros_del_Serial:	
  2223                           ; 1 bytes @ 0x0
  2224                           
  2225     0070                     ?_tengodatos_PorEnviar:	
  2226                           ; 1 bytes @ 0x0
  2227                           
  2228     0070                     ??_tengodatos_PorEnviar:	
  2229                           ; 1 bytes @ 0x0
  2230                           
  2231     0070                     ?_enviarsiguiente_Dato:	
  2232                           ; 1 bytes @ 0x0
  2233                           
  2234     0070                     ?_SYSTEM_Initialize:	
  2235                           ; 1 bytes @ 0x0
  2236                           
  2237     0070                     ?_EUSART_is_tx_ready:	
  2238                           ; 1 bytes @ 0x0
  2239                           
  2240     0070                     ??_EUSART_is_tx_ready:	
  2241                           ; 1 bytes @ 0x0
  2242                           
  2243     0070                     ?_EUSART_Write:	
  2244                           ; 1 bytes @ 0x0
  2245                           
  2246     0070                     ??_EUSART_Write:	
  2247                           ; 1 bytes @ 0x0
  2248                           
  2249     0070                     ?_ADC_StartConversion:	
  2250                           ; 1 bytes @ 0x0
  2251                           
  2252     0070                     ??_ADC_StartConversion:	
  2253                           ; 1 bytes @ 0x0
  2254                           
  2255     0070                     ?_ADC_IsConversionDone:	
  2256                           ; 1 bytes @ 0x0
  2257                           
  2258     0070                     ??_ADC_IsConversionDone:	
  2259                           ; 1 bytes @ 0x0
  2260                           
  2261     0070                     ?_ADC_ISR:	
  2262                           ; 1 bytes @ 0x0
  2263                           
  2264     0070                     ??_ADC_ISR:	
  2265                           ; 1 bytes @ 0x0
  2266                           
  2267     0070                     ?_TMR2_ISR:	
  2268                           ; 1 bytes @ 0x0
  2269                           
  2270     0070                     ??_TMR2_ISR:	
  2271                           ; 1 bytes @ 0x0
  2272                           
  2273     0070                     ?_INTERRUPT_InterruptManager:	
  2274                           ; 1 bytes @ 0x0
  2275                           
  2276     0070                     ??_INTERRUPT_InterruptManager:	
  2277                           ; 1 bytes @ 0x0
  2278                           
  2279     0070                     ?_miatenciontmr2:	
  2280                           ; 1 bytes @ 0x0
  2281                           
  2282     0070                     ??_miatenciontmr2:	
  2283                           ; 1 bytes @ 0x0
  2284                           
  2285     0070                     ?_miatencionadc:	
  2286                           ; 1 bytes @ 0x0
  2287                           
  2288     0070                     ??_miatencionadc:	
  2289                           ; 1 bytes @ 0x0
  2290                           
  2291     0070                     ?_main:	
  2292                           ; 1 bytes @ 0x0
  2293                           
  2294     0070                     ?_Prender_seg:	
  2295                           ; 1 bytes @ 0x0
  2296                           
  2297     0070                     ?__Umul8_16:	
  2298                           ; 1 bytes @ 0x0
  2299                           
  2300     0070                     ?_ADC_GetConversionResult:	
  2301                           ; 2 bytes @ 0x0
  2302                           
  2303     0070                     ?___fladd:	
  2304                           ; 2 bytes @ 0x0
  2305                           
  2306     0070                     ?___xxtofl:	
  2307                           ; 4 bytes @ 0x0
  2308                           
  2309     0070                     _EUSART_is_tx_ready$254:	
  2310                           ; 4 bytes @ 0x0
  2311                           
  2312     0070                     EUSART_Write@txData:	
  2313                           ; 1 bytes @ 0x0
  2314                           
  2315     0070                     Tm_Hubo_periodico@ctp:	
  2316                           ; 1 bytes @ 0x0
  2317                           
  2318     0070                     inicializar_nuestro_Display@dis:	
  2319                           ; 1 bytes @ 0x0
  2320                           
  2321     0070                     tengodatos_PorEnviar@ser:	
  2322                           ; 1 bytes @ 0x0
  2323                           
  2324     0070                     llenar_registros_del_Serial@Dig1:	
  2325                           ; 1 bytes @ 0x0
  2326                           
  2327     0070                     __Umul8_16@multiplicand:	
  2328                           ; 1 bytes @ 0x0
  2329                           
  2330     0070                     EUSART_SetFramingErrorHandler@interruptHandler:	
  2331                           ; 1 bytes @ 0x0
  2332                           
  2333     0070                     EUSART_SetOverrunErrorHandler@interruptHandler:	
  2334                           ; 2 bytes @ 0x0
  2335                           
  2336     0070                     EUSART_SetErrorHandler@interruptHandler:	
  2337                           ; 2 bytes @ 0x0
  2338                           
  2339     0070                     ADC_SetInterruptHandler@InterruptHandler:	
  2340                           ; 2 bytes @ 0x0
  2341                           
  2342     0070                     TMR2_SetInterruptHandler@InterruptHandler:	
  2343                           ; 2 bytes @ 0x0
  2344                           
  2345     0070                     Tm_Inicie_periodico@periodo:	
  2346                           ; 2 bytes @ 0x0
  2347                           
  2348     0070                     Prender_seg@caracter:	
  2349                           ; 2 bytes @ 0x0
  2350                           
  2351     0070                     ___fladd@b:	
  2352                           ; 2 bytes @ 0x0
  2353                           
  2354     0070                     ___xxtofl@val:	
  2355                           ; 4 bytes @ 0x0
  2356                           
  2357                           
  2358                           ; 4 bytes @ 0x0
  2359     0070                     	ds	1
  2360     0071                     ??_enviarsiguiente_Dato:
  2361     0071                     Tm_Baje_periodico@ctp:	
  2362                           ; 1 bytes @ 0x1
  2363                           
  2364     0071                     inicializar_nuestroserial@ser:	
  2365                           ; 1 bytes @ 0x1
  2366                           
  2367     0071                     llenar_registros_del_Serial@Dig2:	
  2368                           ; 1 bytes @ 0x1
  2369                           
  2370                           
  2371                           ; 1 bytes @ 0x1
  2372     0071                     	ds	1
  2373     0072                     ??_ADC_Initialize:
  2374     0072                     ??_TMR2_Initialize:	
  2375                           ; 1 bytes @ 0x2
  2376                           
  2377     0072                     ??_EUSART_Initialize:	
  2378                           ; 1 bytes @ 0x2
  2379                           
  2380     0072                     ??_EUSART_SetFramingErrorHandler:	
  2381                           ; 1 bytes @ 0x2
  2382                           
  2383     0072                     ??_EUSART_SetOverrunErrorHandler:	
  2384                           ; 1 bytes @ 0x2
  2385                           
  2386     0072                     ??_EUSART_SetErrorHandler:	
  2387                           ; 1 bytes @ 0x2
  2388                           
  2389     0072                     ??_ADC_SetInterruptHandler:	
  2390                           ; 1 bytes @ 0x2
  2391                           
  2392     0072                     ??_TMR2_SetInterruptHandler:	
  2393                           ; 1 bytes @ 0x2
  2394                           
  2395     0072                     ??_Tm_Inicie_periodico:	
  2396                           ; 1 bytes @ 0x2
  2397                           
  2398     0072                     ?_mostrar_Display:	
  2399                           ; 1 bytes @ 0x2
  2400                           
  2401     0072                     ??__Umul8_16:	
  2402                           ; 1 bytes @ 0x2
  2403                           
  2404     0072                     ??_SYSTEM_Initialize:	
  2405                           ; 1 bytes @ 0x2
  2406                           
  2407     0072                     ??_ADC_GetConversionResult:	
  2408                           ; 1 bytes @ 0x2
  2409                           
  2410     0072                     ??_Prender_seg:	
  2411                           ; 1 bytes @ 0x2
  2412                           
  2413     0072                     llenar_registros_del_Serial@Dig3:	
  2414                           ; 1 bytes @ 0x2
  2415                           
  2416     0072                     enviarsiguiente_Dato@ser:	
  2417                           ; 1 bytes @ 0x2
  2418                           
  2419     0072                     mostrar_Display@caracter:	
  2420                           ; 1 bytes @ 0x2
  2421                           
  2422                           
  2423                           ; 2 bytes @ 0x2
  2424     0072                     	ds	1
  2425     0073                     ??_llenar_registros_del_Serial:
  2426     0073                     Tm_Inicie_periodico@ctp:	
  2427                           ; 1 bytes @ 0x3
  2428                           
  2429     0073                     llenar_registros_del_Serial@ser:	
  2430                           ; 1 bytes @ 0x3
  2431                           
  2432                           
  2433                           ; 1 bytes @ 0x3
  2434     0073                     	ds	1
  2435     0074                     ??_mostrar_Display:
  2436     0074                     ??___xxtofl:	
  2437                           ; 1 bytes @ 0x4
  2438                           
  2439     0074                     Tm_Procese_tiempo@ctp:	
  2440                           ; 1 bytes @ 0x4
  2441                           
  2442     0074                     __Umul8_16@product:	
  2443                           ; 1 bytes @ 0x4
  2444                           
  2445     0074                     ___fladd@a:	
  2446                           ; 2 bytes @ 0x4
  2447                           
  2448                           
  2449                           ; 4 bytes @ 0x4
  2450     0074                     	ds	2
  2451     0076                     mostrar_Display@dis:
  2452     0076                     __Umul8_16@word_mpld:	
  2453                           ; 1 bytes @ 0x6
  2454                           
  2455                           
  2456                           ; 2 bytes @ 0x6
  2457     0076                     	ds	2
  2458     0078                     ___fladd@signs:
  2459     0078                     __Umul8_16@multiplier:	
  2460                           ; 1 bytes @ 0x8
  2461                           
  2462     0078                     ___xxtofl@sign:	
  2463                           ; 1 bytes @ 0x8
  2464                           
  2465                           
  2466                           ; 1 bytes @ 0x8
  2467     0078                     	ds	1
  2468     0079                     ___fladd@aexp:
  2469     0079                     ___xxtofl@exp:	
  2470                           ; 1 bytes @ 0x9
  2471                           
  2472                           
  2473                           ; 1 bytes @ 0x9
  2474     0079                     	ds	1
  2475     007A                     ___fladd@bexp:
  2476     007A                     ___xxtofl@arg:	
  2477                           ; 1 bytes @ 0xA
  2478                           
  2479                           
  2480                           ; 4 bytes @ 0xA
  2481     007A                     	ds	1
  2482     007B                     ___fladd@grs:
  2483                           
  2484                           ; 1 bytes @ 0xB
  2485     007B                     	ds	3
  2486     007E                     ??_main:
  2487     007E                     ??___flsub:	
  2488                           ; 1 bytes @ 0xE
  2489                           
  2490                           
  2491                           	psect	cstackBANK0
  2492     0020                     __pcstackBANK0:	
  2493                           ; 1 bytes @ 0xE
  2494                           
  2495     0020                     ??___fladd:
  2496                           
  2497                           ; 1 bytes @ 0x0
  2498     0020                     	ds	8
  2499     0028                     ?___flsub:
  2500     0028                     ___flsub@a:	
  2501                           ; 4 bytes @ 0x8
  2502                           
  2503                           
  2504                           ; 4 bytes @ 0x8
  2505     0028                     	ds	4
  2506     002C                     ___flsub@b:
  2507                           
  2508                           ; 4 bytes @ 0xC
  2509     002C                     	ds	4
  2510     0030                     ?___flmul:
  2511     0030                     ___flmul@b:	
  2512                           ; 4 bytes @ 0x10
  2513                           
  2514                           
  2515                           ; 4 bytes @ 0x10
  2516     0030                     	ds	4
  2517     0034                     ___flmul@a:
  2518                           
  2519                           ; 4 bytes @ 0x14
  2520     0034                     	ds	4
  2521     0038                     ??___flmul:
  2522                           
  2523                           ; 1 bytes @ 0x18
  2524     0038                     	ds	5
  2525     003D                     ___flmul@sign:
  2526                           
  2527                           ; 1 bytes @ 0x1D
  2528     003D                     	ds	1
  2529     003E                     ___flmul@grs:
  2530                           
  2531                           ; 4 bytes @ 0x1E
  2532     003E                     	ds	4
  2533     0042                     ___flmul@aexp:
  2534                           
  2535                           ; 1 bytes @ 0x22
  2536     0042                     	ds	1
  2537     0043                     ___flmul@bexp:
  2538                           
  2539                           ; 1 bytes @ 0x23
  2540     0043                     	ds	1
  2541     0044                     ___flmul@prod:
  2542                           
  2543                           ; 4 bytes @ 0x24
  2544     0044                     	ds	4
  2545     0048                     ___flmul@temp:
  2546                           
  2547                           ; 2 bytes @ 0x28
  2548     0048                     	ds	2
  2549     004A                     ?___fldiv:
  2550     004A                     ___fldiv@a:	
  2551                           ; 4 bytes @ 0x2A
  2552                           
  2553                           
  2554                           ; 4 bytes @ 0x2A
  2555     004A                     	ds	4
  2556     004E                     ___fldiv@b:
  2557                           
  2558                           ; 4 bytes @ 0x2E
  2559     004E                     	ds	4
  2560     0052                     ??___fldiv:
  2561                           
  2562                           ; 1 bytes @ 0x32
  2563     0052                     	ds	5
  2564     0057                     ___fldiv@rem:
  2565                           
  2566                           ; 4 bytes @ 0x37
  2567     0057                     	ds	4
  2568     005B                     ___fldiv@sign:
  2569                           
  2570                           ; 1 bytes @ 0x3B
  2571     005B                     	ds	1
  2572     005C                     ___fldiv@new_exp:
  2573                           
  2574                           ; 2 bytes @ 0x3C
  2575     005C                     	ds	2
  2576     005E                     ___fldiv@grs:
  2577                           
  2578                           ; 4 bytes @ 0x3E
  2579     005E                     	ds	4
  2580     0062                     ___fldiv@bexp:
  2581                           
  2582                           ; 1 bytes @ 0x42
  2583     0062                     	ds	1
  2584     0063                     ___fldiv@aexp:
  2585                           
  2586                           ; 1 bytes @ 0x43
  2587     0063                     	ds	1
  2588     0064                     ?___fltol:
  2589     0064                     ___fltol@f1:	
  2590                           ; 4 bytes @ 0x44
  2591                           
  2592                           
  2593                           ; 4 bytes @ 0x44
  2594     0064                     	ds	4
  2595     0068                     ??___fltol:
  2596                           
  2597                           ; 1 bytes @ 0x48
  2598     0068                     	ds	4
  2599     006C                     ___fltol@sign1:
  2600                           
  2601                           ; 1 bytes @ 0x4C
  2602     006C                     	ds	1
  2603     006D                     ___fltol@exp1:
  2604                           
  2605                           ; 1 bytes @ 0x4D
  2606     006D                     	ds	1
  2607     006E                     ?_ADC2Display:
  2608     006E                     ADC2Display@adcVal:	
  2609                           ; 1 bytes @ 0x4E
  2610                           
  2611                           
  2612                           ; 2 bytes @ 0x4E
  2613     006E                     	ds	2
  2614                           
  2615                           	psect	maintext
  2616     0ECC                     __pmaintext:	
  2617 ;;
  2618 ;;Main: autosize = 0, tempsize = 0, incstack = 0, save=0
  2619 ;;
  2620 ;; *************** function _main *****************
  2621 ;; Defined at:
  2622 ;;		line 28 in file "main.c"
  2623 ;; Parameters:    Size  Location     Type
  2624 ;;		None
  2625 ;; Auto vars:     Size  Location     Type
  2626 ;;  miserial       10   21[BANK1 ] struct Sr_Serial
  2627 ;;  timer_ADC       7   14[BANK1 ] struct Tm_Periodico
  2628 ;;  miDisplay       5   31[BANK1 ] struct Ds_Display
  2629 ;;  convirtiendo    1    0        unsigned char 
  2630 ;; Return value:  Size  Location     Type
  2631 ;;                  1    wreg      void 
  2632 ;; Registers used:
  2633 ;;		wreg, fsr0l, fsr0h, fsr1l, fsr1h, status,2, status,0, pclath, cstack
  2634 ;; Tracked objects:
  2635 ;;		On entry : B1F/0
  2636 ;;		On exit  : 0/0
  2637 ;;		Unchanged: 0/0
  2638 ;; Data sizes:     COMMON   BANK0   BANK1   BANK2   BANK3   BANK4
  2639 ;;      Params:         0       0       0       0       0       0
  2640 ;;      Locals:         0       0      22       0       0       0
  2641 ;;      Temps:          0       0       0       0       0       0
  2642 ;;      Totals:         0       0      22       0       0       0
  2643 ;;Total ram usage:       22 bytes
  2644 ;; Hardware stack levels required when called: 6
  2645 ;; This function calls:
  2646 ;;		_ADC2Display
  2647 ;;		_ADC_GetConversionResult
  2648 ;;		_ADC_IsConversionDone
  2649 ;;		_ADC_SetInterruptHandler
  2650 ;;		_ADC_StartConversion
  2651 ;;		_EUSART_is_tx_ready
  2652 ;;		_SYSTEM_Initialize
  2653 ;;		_TMR2_SetInterruptHandler
  2654 ;;		_Tm_Baje_periodico
  2655 ;;		_Tm_Hubo_periodico
  2656 ;;		_Tm_Inicie_periodico
  2657 ;;		_Tm_Procese_tiempo
  2658 ;;		_enviarsiguiente_Dato
  2659 ;;		_inicializar_nuestro_Display
  2660 ;;		_inicializar_nuestroserial
  2661 ;;		_llenar_registros_del_Serial
  2662 ;;		_mostrar_Display
  2663 ;;		_tengodatos_PorEnviar
  2664 ;; This function is called by:
  2665 ;;		Startup code after reset
  2666 ;; This function uses a non-reentrant model
  2667 ;;
  2668                           
  2669     0ECC                     _main:	
  2670                           ;psect for function _main
  2671                           
  2672     0ECC                     l3045:	
  2673                           ;incstack = 0
  2674                           ; Regs used in _main: [wreg-fsr1h+status,2+status,0+pclath+cstack]
  2675                           
  2676                           
  2677                           ;main.c: 30:     (INTCONbits.GIE = 1);
  2678     0ECC  178B               	bsf	11,7	;volatile
  2679                           
  2680                           ;main.c: 31:     (INTCONbits.PEIE = 1);
  2681     0ECD  170B               	bsf	11,6	;volatile
  2682     0ECE                     l3047:
  2683                           
  2684                           ;main.c: 34:  SYSTEM_Initialize();
  2685     0ECE  318C  2415  318E   	fcall	_SYSTEM_Initialize
  2686     0ED1                     l3049:
  2687                           
  2688                           ;main.c: 36:  Tm_Periodico timer_ADC;;main.c: 37:  Tm_Inicie_periodico(&timer_ADC,200);
  2689     0ED1  30C8               	movlw	200
  2690     0ED2  00F0               	movwf	Tm_Inicie_periodico@periodo
  2691     0ED3  3000               	movlw	0
  2692     0ED4  00F1               	movwf	Tm_Inicie_periodico@periodo+1
  2693     0ED5  30AE               	movlw	(low (main@timer_ADC| 0))& (0+255)
  2694     0ED6  3187  27E1  318E   	fcall	_Tm_Inicie_periodico
  2695     0ED9                     l3051:
  2696                           
  2697                           ;main.c: 40:  Sr_Serial miserial;;main.c: 41:  inicializar_nuestroserial(&miserial);
  2698     0ED9  30B5               	movlw	(low (main@miserial| 0))& (0+255)
  2699     0EDA  3187  27BB  318E   	fcall	_inicializar_nuestroserial
  2700     0EDD                     l3053:
  2701                           
  2702                           ;main.c: 44:  Ds_Display miDisplay;;main.c: 45:  inicializar_nuestro_Display(&miDisplay)
      +                          ;
  2703     0EDD  30BF               	movlw	(low (main@miDisplay| 0))& (0+255)
  2704     0EDE  318C  2463  318E   	fcall	_inicializar_nuestro_Display
  2705     0EE1                     l3055:
  2706                           
  2707                           ;main.c: 47:     TMR2_SetInterruptHandler(miatenciontmr2);
  2708     0EE1  3048               	movlw	low _miatenciontmr2
  2709     0EE2  00F0               	movwf	TMR2_SetInterruptHandler@InterruptHandler
  2710     0EE3  300B               	movlw	high _miatenciontmr2
  2711     0EE4  00F1               	movwf	TMR2_SetInterruptHandler@InterruptHandler+1
  2712     0EE5  318B  2372  318E   	fcall	_TMR2_SetInterruptHandler
  2713     0EE8                     l3057:
  2714                           
  2715                           ;main.c: 48:     ADC_SetInterruptHandler(miatencionadc);
  2716     0EE8  3044               	movlw	low _miatencionadc
  2717     0EE9  00F0               	movwf	ADC_SetInterruptHandler@InterruptHandler
  2718     0EEA  300B               	movlw	high _miatencionadc
  2719     0EEB  00F1               	movwf	ADC_SetInterruptHandler@InterruptHandler+1
  2720     0EEC  318B  235A  318E   	fcall	_ADC_SetInterruptHandler
  2721     0EEF                     l3059:
  2722     0EEF                     l3061:
  2723                           
  2724                           ;main.c: 57:   if( VGAIT==1){
  2725     0EEF  0021               	movlb	1	; select bank1
  2726     0EF0  034D               	decf	_VGAIT^(0+128),w	;volatile
  2727     0EF1  1D03               	btfss	3,2
  2728     0EF2  2EF4               	goto	u3001
  2729     0EF3  2EF5               	goto	u3000
  2730     0EF4                     u3001:
  2731     0EF4  2F01               	goto	l3069
  2732     0EF5                     u3000:
  2733     0EF5                     l3063:
  2734                           
  2735                           ;main.c: 58:             VGAIT=0;
  2736     0EF5  01CD               	clrf	_VGAIT^(0+128)	;volatile
  2737     0EF6                     l3065:
  2738                           
  2739                           ;main.c: 59:    Tm_Procese_tiempo (&timer_ADC);
  2740     0EF6  30AE               	movlw	(low (main@timer_ADC| 0))& (0+255)
  2741     0EF7  318C  24C9  318E   	fcall	_Tm_Procese_tiempo
  2742     0EFA                     l3067:
  2743                           
  2744                           ;main.c: 60:    mostrar_Display(&miDisplay, num_Display);
  2745     0EFA  3000               	movlw	0
  2746     0EFB  00F2               	movwf	mostrar_Display@caracter
  2747     0EFC  00F3               	movwf	mostrar_Display@caracter+1
  2748     0EFD  30BF               	movlw	(low (main@miDisplay| 0))& (0+255)
  2749     0EFE  318D  25CE  318E   	fcall	_mostrar_Display
  2750     0F01                     l3069:
  2751                           
  2752                           ;main.c: 63:   if(Tm_Hubo_periodico(&timer_ADC)){
  2753     0F01  30AE               	movlw	(low (main@timer_ADC| 0))& (0+255)
  2754     0F02  318B  2386  318E   	fcall	_Tm_Hubo_periodico
  2755     0F05  3A00               	xorlw	0
  2756     0F06  1903               	skipnz
  2757     0F07  2F09               	goto	u3011
  2758     0F08  2F0A               	goto	u3010
  2759     0F09                     u3011:
  2760     0F09  2F11               	goto	l3077
  2761     0F0A                     u3010:
  2762     0F0A                     l3071:
  2763                           
  2764                           ;main.c: 64:    Tm_Baje_periodico(&timer_ADC);
  2765     0F0A  30AE               	movlw	(low (main@timer_ADC| 0))& (0+255)
  2766     0F0B  318B  238E  318E   	fcall	_Tm_Baje_periodico
  2767     0F0E                     l3073:
  2768                           
  2769                           ;main.c: 65:    ADC_StartConversion();
  2770     0F0E  318B  2341  318E   	fcall	_ADC_StartConversion
  2771     0F11                     l3075:
  2772     0F11                     l3077:
  2773                           
  2774                           ;main.c: 68:   if(ADC_IsConversionDone()&&VGAI_adc==1){
  2775     0F11  318B  2378  318E   	fcall	_ADC_IsConversionDone
  2776     0F14  3A00               	xorlw	0
  2777     0F15  1903               	skipnz
  2778     0F16  2F18               	goto	u3021
  2779     0F17  2F19               	goto	u3020
  2780     0F18                     u3021:
  2781     0F18  2F3E               	goto	l344
  2782     0F19                     u3020:
  2783     0F19                     l3079:
  2784     0F19  0021               	movlb	1	; select bank1
  2785     0F1A  034C               	decf	_VGAI_adc^(0+128),w	;volatile
  2786     0F1B  1D03               	btfss	3,2
  2787     0F1C  2F1E               	goto	u3031
  2788     0F1D  2F1F               	goto	u3030
  2789     0F1E                     u3031:
  2790     0F1E  2F3E               	goto	l344
  2791     0F1F                     u3030:
  2792     0F1F                     l3081:
  2793                           
  2794                           ;main.c: 69:             VGAI_adc=0;
  2795     0F1F  01CC               	clrf	_VGAI_adc^(0+128)	;volatile
  2796     0F20                     l3083:
  2797                           
  2798                           ;main.c: 71:    datoadc= ADC_GetConversionResult();
  2799     0F20  318B  2354  318E   	fcall	_ADC_GetConversionResult
  2800     0F23  0871               	movf	?_ADC_GetConversionResult+1,w
  2801     0F24  0021               	movlb	1	; select bank1
  2802     0F25  00C9               	movwf	(_datoadc+1)^(0+128)
  2803     0F26  0870               	movf	?_ADC_GetConversionResult,w
  2804     0F27  00C8               	movwf	_datoadc^(0+128)
  2805     0F28                     l3085:
  2806                           
  2807                           ;main.c: 72:    ADC2Display(&miDisplay, datoadc);
  2808     0F28  0849               	movf	(_datoadc+1)^(0+128),w
  2809     0F29  0020               	movlb	0	; select bank0
  2810     0F2A  00EF               	movwf	ADC2Display@adcVal+1
  2811     0F2B  0021               	movlb	1	; select bank1
  2812     0F2C  0848               	movf	_datoadc^(0+128),w
  2813     0F2D  0020               	movlb	0	; select bank0
  2814     0F2E  00EE               	movwf	ADC2Display@adcVal
  2815     0F2F  30BF               	movlw	(low (main@miDisplay| 0))& (0+255)
  2816     0F30  3186  262B  318E   	fcall	_ADC2Display
  2817     0F33                     l3087:
  2818                           
  2819                           ;main.c: 74:    llenar_registros_del_Serial(&miserial,miDisplay.Digito1,miDisplay.Digito
      +                          2,miDisplay.Digito3);
  2820     0F33  0021               	movlb	1	; select bank1
  2821     0F34  083F               	movf	main@miDisplay^(0+128),w
  2822     0F35  00F0               	movwf	llenar_registros_del_Serial@Dig1
  2823     0F36  0840               	movf	(main@miDisplay^(0+128)+1),w
  2824     0F37  00F1               	movwf	llenar_registros_del_Serial@Dig2
  2825     0F38  0841               	movf	(main@miDisplay^(0+128)+2),w
  2826     0F39  00F2               	movwf	llenar_registros_del_Serial@Dig3
  2827     0F3A  30B5               	movlw	(low (main@miserial| 0))& (0+255)
  2828     0F3B  318D  2513  318E   	fcall	_llenar_registros_del_Serial
  2829     0F3E                     l344:	
  2830                           ;main.c: 75:   }
  2831                           
  2832                           
  2833                           ;main.c: 76:   if(EUSART_is_tx_ready() && tengodatos_PorEnviar(&miserial)){
  2834     0F3E  318B  23CE  318E   	fcall	_EUSART_is_tx_ready
  2835     0F41  3A00               	xorlw	0
  2836     0F42  1903               	skipnz
  2837     0F43  2F45               	goto	u3041
  2838     0F44  2F46               	goto	u3040
  2839     0F45                     u3041:
  2840     0F45  2EEF               	goto	l3061
  2841     0F46                     u3040:
  2842     0F46                     l3089:
  2843     0F46  30B5               	movlw	(low (main@miserial| 0))& (0+255)
  2844     0F47  318B  23A2  318E   	fcall	_tengodatos_PorEnviar
  2845     0F4A  3A00               	xorlw	0
  2846     0F4B  1903               	skipnz
  2847     0F4C  2F4E               	goto	u3051
  2848     0F4D  2F4F               	goto	u3050
  2849     0F4E                     u3051:
  2850     0F4E  2EEF               	goto	l3061
  2851     0F4F                     u3050:
  2852     0F4F                     l3091:
  2853                           
  2854                           ;main.c: 77:    enviarsiguiente_Dato(&miserial);
  2855     0F4F  30B5               	movlw	(low (main@miserial| 0))& (0+255)
  2856     0F50  318C  242B  318E   	fcall	_enviarsiguiente_Dato
  2857     0F53  2EEF               	goto	l3061
  2858     0F54  3180  2828         	ljmp	start
  2859     0F56                     __end_of_main:
  2860                           
  2861                           	psect	text1
  2862     0BA2                     __ptext1:	
  2863 ;; *************** function _tengodatos_PorEnviar *****************
  2864 ;; Defined at:
  2865 ;;		line 17 in file "nuestroserial.c"
  2866 ;; Parameters:    Size  Location     Type
  2867 ;;  ser             1    wreg     PTR struct Sr_Serial
  2868 ;;		 -> main@miserial(10), 
  2869 ;; Auto vars:     Size  Location     Type
  2870 ;;  ser             1    0[COMMON] PTR struct Sr_Serial
  2871 ;;		 -> main@miserial(10), 
  2872 ;; Return value:  Size  Location     Type
  2873 ;;                  1    wreg      unsigned char 
  2874 ;; Registers used:
  2875 ;;		wreg, fsr1l, fsr1h, status,2, status,0
  2876 ;; Tracked objects:
  2877 ;;		On entry : 0/0
  2878 ;;		On exit  : 0/0
  2879 ;;		Unchanged: 0/0
  2880 ;; Data sizes:     COMMON   BANK0   BANK1   BANK2   BANK3   BANK4
  2881 ;;      Params:         0       0       0       0       0       0
  2882 ;;      Locals:         1       0       0       0       0       0
  2883 ;;      Temps:          0       0       0       0       0       0
  2884 ;;      Totals:         1       0       0       0       0       0
  2885 ;;Total ram usage:        1 bytes
  2886 ;; Hardware stack levels used: 1
  2887 ;; Hardware stack levels required when called: 3
  2888 ;; This function calls:
  2889 ;;		Nothing
  2890 ;; This function is called by:
  2891 ;;		_main
  2892 ;; This function uses a non-reentrant model
  2893 ;;
  2894                           
  2895     0BA2                     _tengodatos_PorEnviar:	
  2896                           ;psect for function _tengodatos_PorEnviar
  2897                           
  2898                           
  2899                           ;incstack = 0
  2900                           ; Regs used in _tengodatos_PorEnviar: [wreg+fsr1l+fsr1h+status,2+status,0]
  2901                           ;tengodatos_PorEnviar@ser stored from wreg
  2902     0BA2  00F0               	movwf	tengodatos_PorEnviar@ser
  2903     0BA3                     l3013:
  2904                           
  2905                           ;nuestroserial.c: 18:     return ser->contador < 6;
  2906     0BA3  0870               	movf	tengodatos_PorEnviar@ser,w
  2907     0BA4  3E06               	addlw	6
  2908     0BA5  0086               	movwf	6
  2909     0BA6  0187               	clrf	7
  2910     0BA7  3006               	movlw	6
  2911     0BA8  0201               	subwf	1,w
  2912     0BA9  1C03               	skipc
  2913     0BAA  2BAC               	goto	u2911
  2914     0BAB  2BAE               	goto	u2910
  2915     0BAC                     u2911:
  2916     0BAC  3001               	movlw	1
  2917     0BAD  2BAF               	goto	u2920
  2918     0BAE                     u2910:
  2919     0BAE  3000               	movlw	0
  2920     0BAF                     u2920:
  2921     0BAF                     l603:
  2922     0BAF  0008               	return
  2923     0BB0                     __end_of_tengodatos_PorEnviar:
  2924                           
  2925                           	psect	text2
  2926     0DCE                     __ptext2:	
  2927 ;; *************** function _mostrar_Display *****************
  2928 ;; Defined at:
  2929 ;;		line 159 in file "nuestrodisplay.c"
  2930 ;; Parameters:    Size  Location     Type
  2931 ;;  dis             1    wreg     PTR struct Ds_Display
  2932 ;;		 -> main@miDisplay(5), 
  2933 ;;  caracter        2    2[COMMON] unsigned int 
  2934 ;; Auto vars:     Size  Location     Type
  2935 ;;  dis             1    6[COMMON] PTR struct Ds_Display
  2936 ;;		 -> main@miDisplay(5), 
  2937 ;; Return value:  Size  Location     Type
  2938 ;;                  1    wreg      void 
  2939 ;; Registers used:
  2940 ;;		wreg, fsr0l, fsr0h, fsr1l, fsr1h, status,2, status,0, pclath, cstack
  2941 ;; Tracked objects:
  2942 ;;		On entry : 0/0
  2943 ;;		On exit  : 0/0
  2944 ;;		Unchanged: 0/0
  2945 ;; Data sizes:     COMMON   BANK0   BANK1   BANK2   BANK3   BANK4
  2946 ;;      Params:         2       0       0       0       0       0
  2947 ;;      Locals:         1       0       0       0       0       0
  2948 ;;      Temps:          2       0       0       0       0       0
  2949 ;;      Totals:         5       0       0       0       0       0
  2950 ;;Total ram usage:        5 bytes
  2951 ;; Hardware stack levels used: 1
  2952 ;; Hardware stack levels required when called: 4
  2953 ;; This function calls:
  2954 ;;		_Prender_seg
  2955 ;; This function is called by:
  2956 ;;		_main
  2957 ;; This function uses a non-reentrant model
  2958 ;;
  2959                           
  2960     0DCE                     _mostrar_Display:	
  2961                           ;psect for function _mostrar_Display
  2962                           
  2963                           
  2964                           ;incstack = 0
  2965                           ; Regs used in _mostrar_Display: [wreg-fsr1h+status,2+status,0+pclath+cstack]
  2966                           ;mostrar_Display@dis stored from wreg
  2967     0DCE  00F6               	movwf	mostrar_Display@dis
  2968     0DCF                     l2941:
  2969                           
  2970                           ;nuestrodisplay.c: 161:     switch(dis->estado){
  2971     0DCF  2E32               	goto	l2963
  2972     0DD0                     l570:	
  2973                           ;nuestrodisplay.c: 164:         do { LATBbits.LATB3 = 1; } while(0);
  2974                           
  2975     0DD0  0022               	movlb	2	; select bank2
  2976     0DD1  158D               	bsf	13,3	;volatile
  2977     0DD2                     l572:	
  2978                           ;nuestrodisplay.c: 165:         do { LATBbits.LATB4 = 0; } while(0);
  2979                           
  2980     0DD2  120D               	bcf	13,4	;volatile
  2981     0DD3                     l574:	
  2982                           ;nuestrodisplay.c: 166:         do { LATBbits.LATB5 = 0; } while(0);
  2983                           
  2984     0DD3  128D               	bcf	13,5	;volatile
  2985     0DD4                     l2943:
  2986                           
  2987                           ;nuestrodisplay.c: 167:         caracter=dis->Digito1;
  2988     0DD4  0876               	movf	mostrar_Display@dis,w
  2989     0DD5  0086               	movwf	6
  2990     0DD6  0187               	clrf	7
  2991     0DD7  0801               	movf	1,w
  2992     0DD8  00F4               	movwf	??_mostrar_Display
  2993     0DD9  01F5               	clrf	??_mostrar_Display+1
  2994     0DDA  0874               	movf	??_mostrar_Display,w
  2995     0DDB  00F2               	movwf	mostrar_Display@caracter
  2996     0DDC  0875               	movf	??_mostrar_Display+1,w
  2997     0DDD  00F3               	movwf	mostrar_Display@caracter+1
  2998     0DDE                     l2945:
  2999                           
  3000                           ;nuestrodisplay.c: 168:         Prender_seg(caracter);
  3001     0DDE  0873               	movf	mostrar_Display@caracter+1,w
  3002     0DDF  00F1               	movwf	Prender_seg@caracter+1
  3003     0DE0  0872               	movf	mostrar_Display@caracter,w
  3004     0DE1  00F0               	movwf	Prender_seg@caracter
  3005     0DE2  318E  264B  318D   	fcall	_Prender_seg
  3006     0DE5                     l2947:
  3007                           
  3008                           ;nuestrodisplay.c: 169:         dis->estado = 1;
  3009     0DE5  0876               	movf	mostrar_Display@dis,w
  3010     0DE6  3E03               	addlw	3
  3011     0DE7  0086               	movwf	6
  3012     0DE8  0187               	clrf	7
  3013     0DE9  3001               	movlw	1
  3014     0DEA  3FC0               	movwi [0]fsr1
  3015     0DEB  3000               	movlw	0
  3016     0DEC  3FC1               	movwi [1]fsr1
  3017                           
  3018                           ;nuestrodisplay.c: 171:         break;
  3019     0DED  2E4A               	goto	l592
  3020     0DEE                     l578:	
  3021                           ;nuestrodisplay.c: 173:         do { LATBbits.LATB3 = 0; } while(0);
  3022                           
  3023     0DEE  0022               	movlb	2	; select bank2
  3024     0DEF  118D               	bcf	13,3	;volatile
  3025     0DF0                     l580:	
  3026                           ;nuestrodisplay.c: 174:         do { LATBbits.LATB4 = 1; } while(0);
  3027                           
  3028     0DF0  160D               	bsf	13,4	;volatile
  3029     0DF1                     l582:	
  3030                           ;nuestrodisplay.c: 175:         do { LATBbits.LATB5 = 0; } while(0);
  3031                           
  3032     0DF1  128D               	bcf	13,5	;volatile
  3033     0DF2                     l2949:
  3034                           
  3035                           ;nuestrodisplay.c: 176:         caracter=dis->Digito2;
  3036     0DF2  0A76               	incf	mostrar_Display@dis,w
  3037     0DF3  0086               	movwf	6
  3038     0DF4  0187               	clrf	7
  3039     0DF5  0801               	movf	1,w
  3040     0DF6  00F4               	movwf	??_mostrar_Display
  3041     0DF7  01F5               	clrf	??_mostrar_Display+1
  3042     0DF8  0874               	movf	??_mostrar_Display,w
  3043     0DF9  00F2               	movwf	mostrar_Display@caracter
  3044     0DFA  0875               	movf	??_mostrar_Display+1,w
  3045     0DFB  00F3               	movwf	mostrar_Display@caracter+1
  3046     0DFC                     l2951:
  3047                           
  3048                           ;nuestrodisplay.c: 177:         Prender_seg(caracter);
  3049     0DFC  0873               	movf	mostrar_Display@caracter+1,w
  3050     0DFD  00F1               	movwf	Prender_seg@caracter+1
  3051     0DFE  0872               	movf	mostrar_Display@caracter,w
  3052     0DFF  00F0               	movwf	Prender_seg@caracter
  3053     0E00  318E  264B  318D   	fcall	_Prender_seg
  3054     0E03                     l2953:
  3055                           
  3056                           ;nuestrodisplay.c: 178:         dis->estado = 2;
  3057     0E03  0876               	movf	mostrar_Display@dis,w
  3058     0E04  3E03               	addlw	3
  3059     0E05  0086               	movwf	6
  3060     0E06  0187               	clrf	7
  3061     0E07  3002               	movlw	2
  3062     0E08  3FC0               	movwi [0]fsr1
  3063     0E09  3000               	movlw	0
  3064     0E0A  3FC1               	movwi [1]fsr1
  3065                           
  3066                           ;nuestrodisplay.c: 180:         break;
  3067     0E0B  2E4A               	goto	l592
  3068     0E0C                     l585:	
  3069                           ;nuestrodisplay.c: 182:         do { LATBbits.LATB3 = 0; } while(0);
  3070                           
  3071     0E0C  0022               	movlb	2	; select bank2
  3072     0E0D  118D               	bcf	13,3	;volatile
  3073     0E0E                     l587:	
  3074                           ;nuestrodisplay.c: 183:         do { LATBbits.LATB4 = 0; } while(0);
  3075                           
  3076     0E0E  120D               	bcf	13,4	;volatile
  3077     0E0F                     l589:	
  3078                           ;nuestrodisplay.c: 184:         do { LATBbits.LATB5 = 1; } while(0);
  3079                           
  3080     0E0F  168D               	bsf	13,5	;volatile
  3081     0E10                     l2955:
  3082                           
  3083                           ;nuestrodisplay.c: 185:         caracter=dis->Digito3;
  3084     0E10  0876               	movf	mostrar_Display@dis,w
  3085     0E11  3E02               	addlw	2
  3086     0E12  0086               	movwf	6
  3087     0E13  0187               	clrf	7
  3088     0E14  0801               	movf	1,w
  3089     0E15  00F4               	movwf	??_mostrar_Display
  3090     0E16  01F5               	clrf	??_mostrar_Display+1
  3091     0E17  0874               	movf	??_mostrar_Display,w
  3092     0E18  00F2               	movwf	mostrar_Display@caracter
  3093     0E19  0875               	movf	??_mostrar_Display+1,w
  3094     0E1A  00F3               	movwf	mostrar_Display@caracter+1
  3095     0E1B                     l2957:
  3096                           
  3097                           ;nuestrodisplay.c: 186:         Prender_seg(caracter);
  3098     0E1B  0873               	movf	mostrar_Display@caracter+1,w
  3099     0E1C  00F1               	movwf	Prender_seg@caracter+1
  3100     0E1D  0872               	movf	mostrar_Display@caracter,w
  3101     0E1E  00F0               	movwf	Prender_seg@caracter
  3102     0E1F  318E  264B  318D   	fcall	_Prender_seg
  3103     0E22                     l2959:
  3104                           
  3105                           ;nuestrodisplay.c: 187:         dis->estado = 0;
  3106     0E22  0876               	movf	mostrar_Display@dis,w
  3107     0E23  3E03               	addlw	3
  3108     0E24  0086               	movwf	6
  3109     0E25  0187               	clrf	7
  3110     0E26  3000               	movlw	0
  3111     0E27  3FC0               	movwi [0]fsr1
  3112     0E28  3FC1               	movwi [1]fsr1
  3113                           
  3114                           ;nuestrodisplay.c: 188:         break;
  3115     0E29  2E4A               	goto	l592
  3116     0E2A                     l2961:
  3117                           
  3118                           ;nuestrodisplay.c: 191:         dis->estado = 0;
  3119     0E2A  0876               	movf	mostrar_Display@dis,w
  3120     0E2B  3E03               	addlw	3
  3121     0E2C  0086               	movwf	6
  3122     0E2D  0187               	clrf	7
  3123     0E2E  3000               	movlw	0
  3124     0E2F  3FC0               	movwi [0]fsr1
  3125     0E30  3FC1               	movwi [1]fsr1
  3126                           
  3127                           ;nuestrodisplay.c: 192:     }
  3128     0E31  2E4A               	goto	l592
  3129     0E32                     l2963:
  3130     0E32  0876               	movf	mostrar_Display@dis,w
  3131     0E33  3E03               	addlw	3
  3132     0E34  0086               	movwf	6
  3133     0E35  0187               	clrf	7
  3134     0E36  3F40               	moviw [0]fsr1
  3135     0E37  00F4               	movwf	??_mostrar_Display
  3136     0E38  3F41               	moviw [1]fsr1
  3137     0E39  00F5               	movwf	??_mostrar_Display+1
  3138                           
  3139                           ; Switch on 2 bytes has been partitioned into a top level switch of size 1, and 1 sub-sw
      +                          itches
  3140                           ; Switch size 1, requested type "simple"
  3141                           ; Number of cases is 1, Range of values is 0 to 0
  3142                           ; switch strategies available:
  3143                           ; Name         Instructions Cycles
  3144                           ; simple_byte            4     3 (average)
  3145                           ; direct_byte            8     6 (fixed)
  3146                           ; jumptable            260     6 (fixed)
  3147                           ;	Chosen strategy is simple_byte
  3148     0E3A  0875               	movf	??_mostrar_Display+1,w
  3149     0E3B  3A00               	xorlw	0	; case 0
  3150     0E3C  1903               	skipnz
  3151     0E3D  2E3F               	goto	l3133
  3152     0E3E  2E2A               	goto	l2961
  3153     0E3F                     l3133:
  3154                           
  3155                           ; Switch size 1, requested type "simple"
  3156                           ; Number of cases is 3, Range of values is 0 to 2
  3157                           ; switch strategies available:
  3158                           ; Name         Instructions Cycles
  3159                           ; simple_byte           10     6 (average)
  3160                           ; direct_byte           12     6 (fixed)
  3161                           ; jumptable            260     6 (fixed)
  3162                           ;	Chosen strategy is simple_byte
  3163     0E3F  0874               	movf	??_mostrar_Display,w
  3164     0E40  3A00               	xorlw	0	; case 0
  3165     0E41  1903               	skipnz
  3166     0E42  2DD0               	goto	l570
  3167     0E43  3A01               	xorlw	1	; case 1
  3168     0E44  1903               	skipnz
  3169     0E45  2DEE               	goto	l578
  3170     0E46  3A03               	xorlw	3	; case 2
  3171     0E47  1903               	skipnz
  3172     0E48  2E0C               	goto	l585
  3173     0E49  2E2A               	goto	l2961
  3174     0E4A                     l592:
  3175     0E4A  0008               	return
  3176     0E4B                     __end_of_mostrar_Display:
  3177                           
  3178                           	psect	text3
  3179     0E4B                     __ptext3:	
  3180 ;; *************** function _Prender_seg *****************
  3181 ;; Defined at:
  3182 ;;		line 44 in file "nuestrodisplay.c"
  3183 ;; Parameters:    Size  Location     Type
  3184 ;;  caracter        2    0[COMMON] unsigned int 
  3185 ;; Auto vars:     Size  Location     Type
  3186 ;;		None
  3187 ;; Return value:  Size  Location     Type
  3188 ;;                  1    wreg      void 
  3189 ;; Registers used:
  3190 ;;		wreg, fsr0l, fsr0h, status,2, status,0
  3191 ;; Tracked objects:
  3192 ;;		On entry : 0/0
  3193 ;;		On exit  : 0/0
  3194 ;;		Unchanged: 0/0
  3195 ;; Data sizes:     COMMON   BANK0   BANK1   BANK2   BANK3   BANK4
  3196 ;;      Params:         2       0       0       0       0       0
  3197 ;;      Locals:         0       0       0       0       0       0
  3198 ;;      Temps:          0       0       0       0       0       0
  3199 ;;      Totals:         2       0       0       0       0       0
  3200 ;;Total ram usage:        2 bytes
  3201 ;; Hardware stack levels used: 1
  3202 ;; Hardware stack levels required when called: 3
  3203 ;; This function calls:
  3204 ;;		Nothing
  3205 ;; This function is called by:
  3206 ;;		_mostrar_Display
  3207 ;; This function uses a non-reentrant model
  3208 ;;
  3209                           
  3210     0E4B                     _Prender_seg:	
  3211                           ;psect for function _Prender_seg
  3212                           
  3213     0E4B                     l2483:	
  3214                           ;incstack = 0
  3215                           ; Regs used in _Prender_seg: [wreg-fsr0h+status,2+status,0]
  3216                           
  3217                           
  3218                           ;nuestrodisplay.c: 46:     switch(caracter){
  3219     0E4B  2EA6               	goto	l2487
  3220     0E4C                     l415:	
  3221                           ;nuestrodisplay.c: 48:         do { LATAbits.LATA1 = 1; } while(0);
  3222                           
  3223     0E4C  0022               	movlb	2	; select bank2
  3224     0E4D  148C               	bsf	12,1	;volatile
  3225     0E4E                     l417:	
  3226                           ;nuestrodisplay.c: 49:         do { LATAbits.LATA2 = 1; } while(0);
  3227                           
  3228     0E4E  150C               	bsf	12,2	;volatile
  3229     0E4F                     l419:	
  3230                           ;nuestrodisplay.c: 50:         do { LATAbits.LATA3 = 1; } while(0);
  3231                           
  3232     0E4F  158C               	bsf	12,3	;volatile
  3233     0E50                     l421:	
  3234                           ;nuestrodisplay.c: 51:         do { LATAbits.LATA4 = 1; } while(0);
  3235                           
  3236     0E50  160C               	bsf	12,4	;volatile
  3237     0E51                     l423:	
  3238                           ;nuestrodisplay.c: 52:         do { LATAbits.LATA6 = 1; } while(0);
  3239                           
  3240     0E51  170C               	bsf	12,6	;volatile
  3241     0E52                     l425:	
  3242                           ;nuestrodisplay.c: 53:         do { LATAbits.LATA7 = 1; } while(0);
  3243                           
  3244     0E52  178C               	bsf	12,7	;volatile
  3245     0E53                     l427:	
  3246                           ;nuestrodisplay.c: 54:         do { LATBbits.LATB0 = 0; } while(0);
  3247                           
  3248     0E53  100D               	bcf	13,0	;volatile
  3249     0E54  2ECB               	goto	l565
  3250     0E55                     l431:	
  3251                           ;nuestrodisplay.c: 58:         do { LATAbits.LATA1 = 0; } while(0);
  3252                           
  3253     0E55  0022               	movlb	2	; select bank2
  3254     0E56  108C               	bcf	12,1	;volatile
  3255     0E57                     l433:	
  3256                           ;nuestrodisplay.c: 59:         do { LATAbits.LATA2 = 1; } while(0);
  3257                           
  3258     0E57  150C               	bsf	12,2	;volatile
  3259     0E58                     l435:	
  3260                           ;nuestrodisplay.c: 60:         do { LATAbits.LATA3 = 1; } while(0);
  3261                           
  3262     0E58  158C               	bsf	12,3	;volatile
  3263     0E59                     l437:	
  3264                           ;nuestrodisplay.c: 61:         do { LATAbits.LATA4 = 0; } while(0);
  3265                           
  3266     0E59  120C               	bcf	12,4	;volatile
  3267     0E5A                     l439:	
  3268                           ;nuestrodisplay.c: 62:         do { LATAbits.LATA6 = 0; } while(0);
  3269                           
  3270     0E5A  130C               	bcf	12,6	;volatile
  3271     0E5B                     l441:	
  3272                           ;nuestrodisplay.c: 63:         do { LATAbits.LATA7 = 0; } while(0);
  3273                           
  3274     0E5B  138C               	bcf	12,7	;volatile
  3275     0E5C                     l443:	
  3276                           ;nuestrodisplay.c: 64:         do { LATBbits.LATB0 = 0; } while(0);
  3277                           
  3278     0E5C  100D               	bcf	13,0	;volatile
  3279     0E5D  2ECB               	goto	l565
  3280     0E5E                     l446:	
  3281                           ;nuestrodisplay.c: 69:         do { LATAbits.LATA1 = 1; } while(0);
  3282                           
  3283     0E5E  0022               	movlb	2	; select bank2
  3284     0E5F  148C               	bsf	12,1	;volatile
  3285     0E60                     l448:	
  3286                           ;nuestrodisplay.c: 70:         do { LATAbits.LATA2 = 1; } while(0);
  3287                           
  3288     0E60  150C               	bsf	12,2	;volatile
  3289     0E61                     l450:	
  3290                           ;nuestrodisplay.c: 71:         do { LATAbits.LATA3 = 0; } while(0);
  3291                           
  3292     0E61  118C               	bcf	12,3	;volatile
  3293     0E62                     l452:	
  3294                           ;nuestrodisplay.c: 72:         do { LATAbits.LATA4 = 1; } while(0);
  3295                           
  3296     0E62  160C               	bsf	12,4	;volatile
  3297     0E63                     l454:	
  3298                           ;nuestrodisplay.c: 73:         do { LATAbits.LATA6 = 1; } while(0);
  3299                           
  3300     0E63  170C               	bsf	12,6	;volatile
  3301     0E64                     l456:	
  3302                           ;nuestrodisplay.c: 74:         do { LATAbits.LATA7 = 0; } while(0);
  3303                           
  3304     0E64  138C               	bcf	12,7	;volatile
  3305     0E65                     l458:	
  3306                           ;nuestrodisplay.c: 75:         do { LATBbits.LATB0 = 1; } while(0);
  3307                           
  3308     0E65  140D               	bsf	13,0	;volatile
  3309     0E66  2ECB               	goto	l565
  3310     0E67                     l461:	
  3311                           ;nuestrodisplay.c: 80:         do { LATAbits.LATA1 = 1; } while(0);
  3312                           
  3313     0E67  0022               	movlb	2	; select bank2
  3314     0E68  148C               	bsf	12,1	;volatile
  3315     0E69                     l463:	
  3316                           ;nuestrodisplay.c: 81:         do { LATAbits.LATA2 = 1; } while(0);
  3317                           
  3318     0E69  150C               	bsf	12,2	;volatile
  3319     0E6A                     l465:	
  3320                           ;nuestrodisplay.c: 82:         do { LATAbits.LATA3 = 1; } while(0);
  3321                           
  3322     0E6A  158C               	bsf	12,3	;volatile
  3323     0E6B                     l467:	
  3324                           ;nuestrodisplay.c: 83:         do { LATAbits.LATA4 = 1; } while(0);
  3325                           
  3326     0E6B  160C               	bsf	12,4	;volatile
  3327     0E6C                     l469:	
  3328                           ;nuestrodisplay.c: 84:         do { LATAbits.LATA6 = 0; } while(0);
  3329                           
  3330     0E6C  130C               	bcf	12,6	;volatile
  3331     0E6D                     l471:	
  3332                           ;nuestrodisplay.c: 85:         do { LATAbits.LATA7 = 0; } while(0);
  3333                           
  3334     0E6D  138C               	bcf	12,7	;volatile
  3335     0E6E                     l473:	
  3336                           ;nuestrodisplay.c: 86:         do { LATBbits.LATB0 = 1; } while(0);
  3337                           
  3338     0E6E  140D               	bsf	13,0	;volatile
  3339     0E6F  2ECB               	goto	l565
  3340     0E70                     l476:	
  3341                           ;nuestrodisplay.c: 91:         do { LATAbits.LATA1 = 0; } while(0);
  3342                           
  3343     0E70  0022               	movlb	2	; select bank2
  3344     0E71  108C               	bcf	12,1	;volatile
  3345     0E72                     l478:	
  3346                           ;nuestrodisplay.c: 92:         do { LATAbits.LATA2 = 1; } while(0);
  3347                           
  3348     0E72  150C               	bsf	12,2	;volatile
  3349     0E73                     l480:	
  3350                           ;nuestrodisplay.c: 93:         do { LATAbits.LATA3 = 1; } while(0);
  3351                           
  3352     0E73  158C               	bsf	12,3	;volatile
  3353     0E74                     l482:	
  3354                           ;nuestrodisplay.c: 94:         do { LATAbits.LATA4 = 0; } while(0);
  3355                           
  3356     0E74  120C               	bcf	12,4	;volatile
  3357     0E75                     l484:	
  3358                           ;nuestrodisplay.c: 95:         do { LATAbits.LATA6 = 0; } while(0);
  3359                           
  3360     0E75  130C               	bcf	12,6	;volatile
  3361     0E76                     l486:	
  3362                           ;nuestrodisplay.c: 96:         do { LATAbits.LATA7 = 1; } while(0);
  3363                           
  3364     0E76  178C               	bsf	12,7	;volatile
  3365     0E77                     l488:	
  3366                           ;nuestrodisplay.c: 97:         do { LATBbits.LATB0 = 1; } while(0);
  3367                           
  3368     0E77  140D               	bsf	13,0	;volatile
  3369     0E78  2ECB               	goto	l565
  3370     0E79                     l491:	
  3371                           ;nuestrodisplay.c: 102:         do { LATAbits.LATA1 = 1; } while(0);
  3372                           
  3373     0E79  0022               	movlb	2	; select bank2
  3374     0E7A  148C               	bsf	12,1	;volatile
  3375     0E7B                     l493:	
  3376                           ;nuestrodisplay.c: 103:         do { LATAbits.LATA2 = 0; } while(0);
  3377                           
  3378     0E7B  110C               	bcf	12,2	;volatile
  3379     0E7C                     l495:	
  3380                           ;nuestrodisplay.c: 104:         do { LATAbits.LATA3 = 1; } while(0);
  3381                           
  3382     0E7C  158C               	bsf	12,3	;volatile
  3383     0E7D                     l497:	
  3384                           ;nuestrodisplay.c: 105:         do { LATAbits.LATA4 = 1; } while(0);
  3385                           
  3386     0E7D  160C               	bsf	12,4	;volatile
  3387     0E7E                     l499:	
  3388                           ;nuestrodisplay.c: 106:         do { LATAbits.LATA6 = 0; } while(0);
  3389                           
  3390     0E7E  130C               	bcf	12,6	;volatile
  3391     0E7F                     l501:	
  3392                           ;nuestrodisplay.c: 107:         do { LATAbits.LATA7 = 1; } while(0);
  3393                           
  3394     0E7F  178C               	bsf	12,7	;volatile
  3395     0E80                     l503:	
  3396                           ;nuestrodisplay.c: 108:         do { LATBbits.LATB0 = 1; } while(0);
  3397                           
  3398     0E80  140D               	bsf	13,0	;volatile
  3399     0E81  2ECB               	goto	l565
  3400     0E82                     l506:	
  3401                           ;nuestrodisplay.c: 113:         do { LATAbits.LATA1 = 1; } while(0);
  3402                           
  3403     0E82  0022               	movlb	2	; select bank2
  3404     0E83  148C               	bsf	12,1	;volatile
  3405     0E84                     l508:	
  3406                           ;nuestrodisplay.c: 114:         do { LATAbits.LATA2 = 0; } while(0);
  3407                           
  3408     0E84  110C               	bcf	12,2	;volatile
  3409     0E85                     l510:	
  3410                           ;nuestrodisplay.c: 115:         do { LATAbits.LATA3 = 1; } while(0);
  3411                           
  3412     0E85  158C               	bsf	12,3	;volatile
  3413     0E86                     l512:	
  3414                           ;nuestrodisplay.c: 116:         do { LATAbits.LATA4 = 1; } while(0);
  3415                           
  3416     0E86  160C               	bsf	12,4	;volatile
  3417     0E87                     l514:	
  3418                           ;nuestrodisplay.c: 117:         do { LATAbits.LATA6 = 1; } while(0);
  3419                           
  3420     0E87  170C               	bsf	12,6	;volatile
  3421     0E88                     l516:	
  3422                           ;nuestrodisplay.c: 118:         do { LATAbits.LATA7 = 1; } while(0);
  3423                           
  3424     0E88  178C               	bsf	12,7	;volatile
  3425     0E89                     l518:	
  3426                           ;nuestrodisplay.c: 119:         do { LATBbits.LATB0 = 1; } while(0);
  3427                           
  3428     0E89  140D               	bsf	13,0	;volatile
  3429     0E8A  2ECB               	goto	l565
  3430     0E8B                     l521:	
  3431                           ;nuestrodisplay.c: 124:         do { LATAbits.LATA1 = 1; } while(0);
  3432                           
  3433     0E8B  0022               	movlb	2	; select bank2
  3434     0E8C  148C               	bsf	12,1	;volatile
  3435     0E8D                     l523:	
  3436                           ;nuestrodisplay.c: 125:         do { LATAbits.LATA2 = 1; } while(0);
  3437                           
  3438     0E8D  150C               	bsf	12,2	;volatile
  3439     0E8E                     l525:	
  3440                           ;nuestrodisplay.c: 126:         do { LATAbits.LATA3 = 1; } while(0);
  3441                           
  3442     0E8E  158C               	bsf	12,3	;volatile
  3443     0E8F                     l527:	
  3444                           ;nuestrodisplay.c: 127:         do { LATAbits.LATA4 = 0; } while(0);
  3445                           
  3446     0E8F  120C               	bcf	12,4	;volatile
  3447     0E90                     l529:	
  3448                           ;nuestrodisplay.c: 128:         do { LATAbits.LATA6 = 0; } while(0);
  3449                           
  3450     0E90  130C               	bcf	12,6	;volatile
  3451     0E91                     l531:	
  3452                           ;nuestrodisplay.c: 129:         do { LATAbits.LATA7 = 0; } while(0);
  3453                           
  3454     0E91  138C               	bcf	12,7	;volatile
  3455     0E92                     l533:	
  3456                           ;nuestrodisplay.c: 130:         do { LATBbits.LATB0 = 0; } while(0);
  3457                           
  3458     0E92  100D               	bcf	13,0	;volatile
  3459     0E93  2ECB               	goto	l565
  3460     0E94                     l536:	
  3461                           ;nuestrodisplay.c: 135:         do { LATAbits.LATA1 = 1; } while(0);
  3462                           
  3463     0E94  0022               	movlb	2	; select bank2
  3464     0E95  148C               	bsf	12,1	;volatile
  3465     0E96                     l538:	
  3466                           ;nuestrodisplay.c: 136:         do { LATAbits.LATA2 = 1; } while(0);
  3467                           
  3468     0E96  150C               	bsf	12,2	;volatile
  3469     0E97                     l540:	
  3470                           ;nuestrodisplay.c: 137:         do { LATAbits.LATA3 = 1; } while(0);
  3471                           
  3472     0E97  158C               	bsf	12,3	;volatile
  3473     0E98                     l542:	
  3474                           ;nuestrodisplay.c: 138:         do { LATAbits.LATA4 = 1; } while(0);
  3475                           
  3476     0E98  160C               	bsf	12,4	;volatile
  3477     0E99                     l544:	
  3478                           ;nuestrodisplay.c: 139:         do { LATAbits.LATA6 = 1; } while(0);
  3479                           
  3480     0E99  170C               	bsf	12,6	;volatile
  3481     0E9A                     l546:	
  3482                           ;nuestrodisplay.c: 140:         do { LATAbits.LATA7 = 1; } while(0);
  3483                           
  3484     0E9A  178C               	bsf	12,7	;volatile
  3485     0E9B                     l548:	
  3486                           ;nuestrodisplay.c: 141:         do { LATBbits.LATB0 = 1; } while(0);
  3487                           
  3488     0E9B  140D               	bsf	13,0	;volatile
  3489     0E9C  2ECB               	goto	l565
  3490     0E9D                     l551:	
  3491                           ;nuestrodisplay.c: 146:         do { LATAbits.LATA1 = 1; } while(0);
  3492                           
  3493     0E9D  0022               	movlb	2	; select bank2
  3494     0E9E  148C               	bsf	12,1	;volatile
  3495     0E9F                     l553:	
  3496                           ;nuestrodisplay.c: 147:         do { LATAbits.LATA2 = 1; } while(0);
  3497                           
  3498     0E9F  150C               	bsf	12,2	;volatile
  3499     0EA0                     l555:	
  3500                           ;nuestrodisplay.c: 148:         do { LATAbits.LATA3 = 1; } while(0);
  3501                           
  3502     0EA0  158C               	bsf	12,3	;volatile
  3503     0EA1                     l557:	
  3504                           ;nuestrodisplay.c: 149:         do { LATAbits.LATA4 = 1; } while(0);
  3505                           
  3506     0EA1  160C               	bsf	12,4	;volatile
  3507     0EA2                     l559:	
  3508                           ;nuestrodisplay.c: 150:         do { LATAbits.LATA6 = 0; } while(0);
  3509                           
  3510     0EA2  130C               	bcf	12,6	;volatile
  3511     0EA3                     l561:	
  3512                           ;nuestrodisplay.c: 151:         do { LATAbits.LATA7 = 1; } while(0);
  3513                           
  3514     0EA3  178C               	bsf	12,7	;volatile
  3515     0EA4                     l563:	
  3516                           ;nuestrodisplay.c: 152:         do { LATBbits.LATB0 = 1; } while(0);
  3517                           
  3518     0EA4  140D               	bsf	13,0	;volatile
  3519     0EA5  2ECB               	goto	l565
  3520     0EA6                     l2487:
  3521                           
  3522                           ; Switch on 2 bytes has been partitioned into a top level switch of size 1, and 1 sub-sw
      +                          itches
  3523                           ; Switch size 1, requested type "simple"
  3524                           ; Number of cases is 1, Range of values is 0 to 0
  3525                           ; switch strategies available:
  3526                           ; Name         Instructions Cycles
  3527                           ; simple_byte            4     3 (average)
  3528                           ; direct_byte            8     6 (fixed)
  3529                           ; jumptable            260     6 (fixed)
  3530                           ;	Chosen strategy is simple_byte
  3531     0EA6  0871               	movf	Prender_seg@caracter+1,w
  3532     0EA7  3A00               	xorlw	0	; case 0
  3533     0EA8  1903               	skipnz
  3534     0EA9  2EAB               	goto	l3135
  3535     0EAA  2ECB               	goto	l565
  3536     0EAB                     l3135:
  3537                           
  3538                           ; Switch size 1, requested type "simple"
  3539                           ; Number of cases is 10, Range of values is 0 to 9
  3540                           ; switch strategies available:
  3541                           ; Name         Instructions Cycles
  3542                           ; direct_byte           26     6 (fixed)
  3543                           ; simple_byte           31    16 (average)
  3544                           ; jumptable            260     6 (fixed)
  3545                           ;	Chosen strategy is simple_byte
  3546     0EAB  0870               	movf	Prender_seg@caracter,w
  3547     0EAC  3A00               	xorlw	0	; case 0
  3548     0EAD  1903               	skipnz
  3549     0EAE  2E4C               	goto	l415
  3550     0EAF  3A01               	xorlw	1	; case 1
  3551     0EB0  1903               	skipnz
  3552     0EB1  2E55               	goto	l431
  3553     0EB2  3A03               	xorlw	3	; case 2
  3554     0EB3  1903               	skipnz
  3555     0EB4  2E5E               	goto	l446
  3556     0EB5  3A01               	xorlw	1	; case 3
  3557     0EB6  1903               	skipnz
  3558     0EB7  2E67               	goto	l461
  3559     0EB8  3A07               	xorlw	7	; case 4
  3560     0EB9  1903               	skipnz
  3561     0EBA  2E70               	goto	l476
  3562     0EBB  3A01               	xorlw	1	; case 5
  3563     0EBC  1903               	skipnz
  3564     0EBD  2E79               	goto	l491
  3565     0EBE  3A03               	xorlw	3	; case 6
  3566     0EBF  1903               	skipnz
  3567     0EC0  2E82               	goto	l506
  3568     0EC1  3A01               	xorlw	1	; case 7
  3569     0EC2  1903               	skipnz
  3570     0EC3  2E8B               	goto	l521
  3571     0EC4  3A0F               	xorlw	15	; case 8
  3572     0EC5  1903               	skipnz
  3573     0EC6  2E94               	goto	l536
  3574     0EC7  3A01               	xorlw	1	; case 9
  3575     0EC8  1903               	skipnz
  3576     0EC9  2E9D               	goto	l551
  3577     0ECA  2ECB               	goto	l565
  3578     0ECB                     l565:
  3579     0ECB  0008               	return
  3580     0ECC                     __end_of_Prender_seg:
  3581                           
  3582                           	psect	text4
  3583     0D13                     __ptext4:	
  3584 ;; *************** function _llenar_registros_del_Serial *****************
  3585 ;; Defined at:
  3586 ;;		line 21 in file "nuestroserial.c"
  3587 ;; Parameters:    Size  Location     Type
  3588 ;;  ser             1    wreg     PTR struct Sr_Serial
  3589 ;;		 -> main@miserial(10), 
  3590 ;;  Dig1            1    0[COMMON] unsigned char 
  3591 ;;  Dig2            1    1[COMMON] unsigned char 
  3592 ;;  Dig3            1    2[COMMON] unsigned char 
  3593 ;; Auto vars:     Size  Location     Type
  3594 ;;  ser             1    3[COMMON] PTR struct Sr_Serial
  3595 ;;		 -> main@miserial(10), 
  3596 ;; Return value:  Size  Location     Type
  3597 ;;                  1    wreg      void 
  3598 ;; Registers used:
  3599 ;;		wreg, fsr0l, fsr0h, fsr1l, fsr1h, status,2, status,0
  3600 ;; Tracked objects:
  3601 ;;		On entry : 0/0
  3602 ;;		On exit  : 0/0
  3603 ;;		Unchanged: 0/0
  3604 ;; Data sizes:     COMMON   BANK0   BANK1   BANK2   BANK3   BANK4
  3605 ;;      Params:         3       0       0       0       0       0
  3606 ;;      Locals:         1       0       0       0       0       0
  3607 ;;      Temps:          0       0       0       0       0       0
  3608 ;;      Totals:         4       0       0       0       0       0
  3609 ;;Total ram usage:        4 bytes
  3610 ;; Hardware stack levels used: 1
  3611 ;; Hardware stack levels required when called: 3
  3612 ;; This function calls:
  3613 ;;		Nothing
  3614 ;; This function is called by:
  3615 ;;		_main
  3616 ;; This function uses a non-reentrant model
  3617 ;;
  3618                           
  3619     0D13                     _llenar_registros_del_Serial:	
  3620                           ;psect for function _llenar_registros_del_Serial
  3621                           
  3622                           
  3623                           ;incstack = 0
  3624                           ; Regs used in _llenar_registros_del_Serial: [wreg-fsr1h+status,2+status,0]
  3625                           ;llenar_registros_del_Serial@ser stored from wreg
  3626     0D13  00F3               	movwf	llenar_registros_del_Serial@ser
  3627     0D14                     l2997:
  3628                           
  3629                           ;nuestroserial.c: 23:     ser->Valor1 = Dig1;
  3630     0D14  0873               	movf	llenar_registros_del_Serial@ser,w
  3631     0D15  3E07               	addlw	7
  3632     0D16  0086               	movwf	6
  3633     0D17  0187               	clrf	7
  3634     0D18  0870               	movf	llenar_registros_del_Serial@Dig1,w
  3635     0D19  0081               	movwf	1
  3636                           
  3637                           ;nuestroserial.c: 24:     ser->Valor2 = Dig2;
  3638     0D1A  0873               	movf	llenar_registros_del_Serial@ser,w
  3639     0D1B  3E08               	addlw	8
  3640     0D1C  0086               	movwf	6
  3641     0D1D  0187               	clrf	7
  3642     0D1E  0871               	movf	llenar_registros_del_Serial@Dig2,w
  3643     0D1F  0081               	movwf	1
  3644                           
  3645                           ;nuestroserial.c: 25:     ser->Valor3 = Dig3;
  3646     0D20  0873               	movf	llenar_registros_del_Serial@ser,w
  3647     0D21  3E09               	addlw	9
  3648     0D22  0086               	movwf	6
  3649     0D23  0187               	clrf	7
  3650     0D24  0872               	movf	llenar_registros_del_Serial@Dig3,w
  3651     0D25  0081               	movwf	1
  3652     0D26                     l2999:
  3653                           
  3654                           ;nuestroserial.c: 27:     ser->datosaenviar[0]= ser->Valor1 + 48;
  3655     0D26  0873               	movf	llenar_registros_del_Serial@ser,w
  3656     0D27  0086               	movwf	6
  3657     0D28  0187               	clrf	7
  3658     0D29  0873               	movf	llenar_registros_del_Serial@ser,w
  3659     0D2A  3E07               	addlw	7
  3660     0D2B  0084               	movwf	4
  3661     0D2C  0185               	clrf	5
  3662     0D2D  0800               	movf	0,w
  3663     0D2E  3E30               	addlw	48
  3664     0D2F  0081               	movwf	1
  3665     0D30                     l3001:
  3666                           
  3667                           ;nuestroserial.c: 28:     ser->datosaenviar[1]= 46;
  3668     0D30  0A73               	incf	llenar_registros_del_Serial@ser,w
  3669     0D31  0086               	movwf	6
  3670     0D32  0187               	clrf	7
  3671     0D33  302E               	movlw	46
  3672     0D34  0081               	movwf	1
  3673     0D35                     l3003:
  3674                           
  3675                           ;nuestroserial.c: 29:     ser->datosaenviar[2]= ser->Valor2 + 48;
  3676     0D35  0873               	movf	llenar_registros_del_Serial@ser,w
  3677     0D36  3E02               	addlw	2
  3678     0D37  0086               	movwf	6
  3679     0D38  0187               	clrf	7
  3680     0D39  0873               	movf	llenar_registros_del_Serial@ser,w
  3681     0D3A  3E08               	addlw	8
  3682     0D3B  0084               	movwf	4
  3683     0D3C  0185               	clrf	5
  3684     0D3D  0800               	movf	0,w
  3685     0D3E  3E30               	addlw	48
  3686     0D3F  0081               	movwf	1
  3687     0D40                     l3005:
  3688                           
  3689                           ;nuestroserial.c: 30:     ser->datosaenviar[3]= ser->Valor3 + 48;
  3690     0D40  0873               	movf	llenar_registros_del_Serial@ser,w
  3691     0D41  3E03               	addlw	3
  3692     0D42  0086               	movwf	6
  3693     0D43  0187               	clrf	7
  3694     0D44  0873               	movf	llenar_registros_del_Serial@ser,w
  3695     0D45  3E09               	addlw	9
  3696     0D46  0084               	movwf	4
  3697     0D47  0185               	clrf	5
  3698     0D48  0800               	movf	0,w
  3699     0D49  3E30               	addlw	48
  3700     0D4A  0081               	movwf	1
  3701     0D4B                     l3007:
  3702                           
  3703                           ;nuestroserial.c: 31:     ser->datosaenviar[4]= 13;
  3704     0D4B  0873               	movf	llenar_registros_del_Serial@ser,w
  3705     0D4C  3E04               	addlw	4
  3706     0D4D  0086               	movwf	6
  3707     0D4E  0187               	clrf	7
  3708     0D4F  300D               	movlw	13
  3709     0D50  0081               	movwf	1
  3710     0D51                     l3009:
  3711                           
  3712                           ;nuestroserial.c: 32:     ser->datosaenviar[5]= 10;
  3713     0D51  0873               	movf	llenar_registros_del_Serial@ser,w
  3714     0D52  3E05               	addlw	5
  3715     0D53  0086               	movwf	6
  3716     0D54  0187               	clrf	7
  3717     0D55  300A               	movlw	10
  3718     0D56  0081               	movwf	1
  3719     0D57                     l3011:
  3720                           
  3721                           ;nuestroserial.c: 33:     ser->contador=0;
  3722     0D57  0873               	movf	llenar_registros_del_Serial@ser,w
  3723     0D58  3E06               	addlw	6
  3724     0D59  0086               	movwf	6
  3725     0D5A  0187               	clrf	7
  3726     0D5B  0181               	clrf	1
  3727     0D5C                     l606:
  3728     0D5C  0008               	return
  3729     0D5D                     __end_of_llenar_registros_del_Serial:
  3730                           
  3731                           	psect	text5
  3732     07BB                     __ptext5:	
  3733 ;; *************** function _inicializar_nuestroserial *****************
  3734 ;; Defined at:
  3735 ;;		line 10 in file "nuestroserial.c"
  3736 ;; Parameters:    Size  Location     Type
  3737 ;;  ser             1    wreg     PTR struct Sr_Serial
  3738 ;;		 -> main@miserial(10), 
  3739 ;; Auto vars:     Size  Location     Type
  3740 ;;  ser             1    1[COMMON] PTR struct Sr_Serial
  3741 ;;		 -> main@miserial(10), 
  3742 ;; Return value:  Size  Location     Type
  3743 ;;                  1    wreg      void 
  3744 ;; Registers used:
  3745 ;;		wreg, fsr1l, fsr1h, status,2, status,0
  3746 ;; Tracked objects:
  3747 ;;		On entry : 0/0
  3748 ;;		On exit  : 0/0
  3749 ;;		Unchanged: 0/0
  3750 ;; Data sizes:     COMMON   BANK0   BANK1   BANK2   BANK3   BANK4
  3751 ;;      Params:         0       0       0       0       0       0
  3752 ;;      Locals:         1       0       0       0       0       0
  3753 ;;      Temps:          1       0       0       0       0       0
  3754 ;;      Totals:         2       0       0       0       0       0
  3755 ;;Total ram usage:        2 bytes
  3756 ;; Hardware stack levels used: 1
  3757 ;; Hardware stack levels required when called: 3
  3758 ;; This function calls:
  3759 ;;		Nothing
  3760 ;; This function is called by:
  3761 ;;		_main
  3762 ;; This function uses a non-reentrant model
  3763 ;;
  3764                           
  3765     07BB                     _inicializar_nuestroserial:	
  3766                           ;psect for function _inicializar_nuestroserial
  3767                           
  3768                           
  3769                           ;incstack = 0
  3770                           ; Regs used in _inicializar_nuestroserial: [wreg+fsr1l+fsr1h+status,2+status,0]
  3771                           ;inicializar_nuestroserial@ser stored from wreg
  3772     07BB  00F1               	movwf	inicializar_nuestroserial@ser
  3773     07BC                     l2897:
  3774                           
  3775                           ;nuestroserial.c: 11:     for (ser->contador=0;ser->contador<6;ser->contador++){
  3776     07BC  0871               	movf	inicializar_nuestroserial@ser,w
  3777     07BD  3E06               	addlw	6
  3778     07BE  0086               	movwf	6
  3779     07BF  0187               	clrf	7
  3780     07C0  0181               	clrf	1
  3781     07C1  2FD6               	goto	l597
  3782     07C2                     l2899:
  3783                           
  3784                           ;nuestroserial.c: 12:         ser->datosaenviar[ser->contador]=48;
  3785     07C2  0871               	movf	inicializar_nuestroserial@ser,w
  3786     07C3  3E06               	addlw	6
  3787     07C4  0086               	movwf	6
  3788     07C5  0187               	clrf	7
  3789     07C6  0801               	movf	1,w
  3790     07C7  0771               	addwf	inicializar_nuestroserial@ser,w
  3791     07C8  00F0               	movwf	??_inicializar_nuestroserial
  3792     07C9  0870               	movf	??_inicializar_nuestroserial,w
  3793     07CA  0086               	movwf	6
  3794     07CB  0187               	clrf	7
  3795     07CC  3030               	movlw	48
  3796     07CD  0081               	movwf	1
  3797                           
  3798                           ;nuestroserial.c: 13:     }
  3799     07CE  3001               	movlw	1
  3800     07CF  00F0               	movwf	??_inicializar_nuestroserial
  3801     07D0  0871               	movf	inicializar_nuestroserial@ser,w
  3802     07D1  3E06               	addlw	6
  3803     07D2  0086               	movwf	6
  3804     07D3  0187               	clrf	7
  3805     07D4  0870               	movf	??_inicializar_nuestroserial,w
  3806     07D5  0781               	addwf	1,f
  3807     07D6                     l597:
  3808     07D6  0871               	movf	inicializar_nuestroserial@ser,w
  3809     07D7  3E06               	addlw	6
  3810     07D8  0086               	movwf	6
  3811     07D9  0187               	clrf	7
  3812     07DA  3006               	movlw	6
  3813     07DB  0201               	subwf	1,w
  3814     07DC  1C03               	skipc
  3815     07DD  2FDF               	goto	u2841
  3816     07DE  2FE0               	goto	u2840
  3817     07DF                     u2841:
  3818     07DF  2FC2               	goto	l2899
  3819     07E0                     u2840:
  3820     07E0                     l600:
  3821     07E0  0008               	return
  3822     07E1                     __end_of_inicializar_nuestroserial:
  3823                           
  3824                           	psect	text6
  3825     0C63                     __ptext6:	
  3826 ;; *************** function _inicializar_nuestro_Display *****************
  3827 ;; Defined at:
  3828 ;;		line 10 in file "nuestrodisplay.c"
  3829 ;; Parameters:    Size  Location     Type
  3830 ;;  dis             1    wreg     PTR struct Ds_Display
  3831 ;;		 -> main@miDisplay(5), 
  3832 ;; Auto vars:     Size  Location     Type
  3833 ;;  dis             1    0[COMMON] PTR struct Ds_Display
  3834 ;;		 -> main@miDisplay(5), 
  3835 ;; Return value:  Size  Location     Type
  3836 ;;                  1    wreg      void 
  3837 ;; Registers used:
  3838 ;;		wreg, fsr1l, fsr1h, status,2, status,0
  3839 ;; Tracked objects:
  3840 ;;		On entry : 0/0
  3841 ;;		On exit  : 0/0
  3842 ;;		Unchanged: 0/0
  3843 ;; Data sizes:     COMMON   BANK0   BANK1   BANK2   BANK3   BANK4
  3844 ;;      Params:         0       0       0       0       0       0
  3845 ;;      Locals:         1       0       0       0       0       0
  3846 ;;      Temps:          0       0       0       0       0       0
  3847 ;;      Totals:         1       0       0       0       0       0
  3848 ;;Total ram usage:        1 bytes
  3849 ;; Hardware stack levels used: 1
  3850 ;; Hardware stack levels required when called: 3
  3851 ;; This function calls:
  3852 ;;		Nothing
  3853 ;; This function is called by:
  3854 ;;		_main
  3855 ;; This function uses a non-reentrant model
  3856 ;;
  3857                           
  3858     0C63                     _inicializar_nuestro_Display:	
  3859                           ;psect for function _inicializar_nuestro_Display
  3860                           
  3861                           
  3862                           ;incstack = 0
  3863                           ; Regs used in _inicializar_nuestro_Display: [wreg+fsr1l+fsr1h+status,2+status,0]
  3864                           ;inicializar_nuestro_Display@dis stored from wreg
  3865     0C63  00F0               	movwf	inicializar_nuestro_Display@dis
  3866     0C64                     l2901:
  3867                           
  3868                           ;nuestrodisplay.c: 11:     dis->Digito1=0;
  3869     0C64  0870               	movf	inicializar_nuestro_Display@dis,w
  3870     0C65  0086               	movwf	6
  3871     0C66  0187               	clrf	7
  3872     0C67  0181               	clrf	1
  3873                           
  3874                           ;nuestrodisplay.c: 12:     dis-> Digito2=0;
  3875     0C68  0A70               	incf	inicializar_nuestro_Display@dis,w
  3876     0C69  0086               	movwf	6
  3877     0C6A  0187               	clrf	7
  3878     0C6B  0181               	clrf	1
  3879     0C6C                     l2903:
  3880                           
  3881                           ;nuestrodisplay.c: 13:     dis-> Digito3=0;
  3882     0C6C  0870               	movf	inicializar_nuestro_Display@dis,w
  3883     0C6D  3E02               	addlw	2
  3884     0C6E  0086               	movwf	6
  3885     0C6F  0187               	clrf	7
  3886     0C70  0181               	clrf	1
  3887     0C71                     l2905:
  3888                           
  3889                           ;nuestrodisplay.c: 14:     dis-> estado=0;
  3890     0C71  0870               	movf	inicializar_nuestro_Display@dis,w
  3891     0C72  3E03               	addlw	3
  3892     0C73  0086               	movwf	6
  3893     0C74  0187               	clrf	7
  3894     0C75  3000               	movlw	0
  3895     0C76  3FC0               	movwi [0]fsr1
  3896     0C77  3FC1               	movwi [1]fsr1
  3897     0C78                     l2907:
  3898     0C78  0022               	movlb	2	; select bank2
  3899     0C79  118D               	bcf	13,3	;volatile
  3900     0C7A                     l2909:
  3901     0C7A  120D               	bcf	13,4	;volatile
  3902     0C7B                     l2911:
  3903     0C7B  128D               	bcf	13,5	;volatile
  3904     0C7C                     l2913:
  3905     0C7C  108C               	bcf	12,1	;volatile
  3906     0C7D                     l2915:
  3907     0C7D  110C               	bcf	12,2	;volatile
  3908     0C7E                     l2917:
  3909     0C7E  118C               	bcf	12,3	;volatile
  3910     0C7F                     l2919:
  3911     0C7F  120C               	bcf	12,4	;volatile
  3912     0C80                     l2921:
  3913     0C80  130C               	bcf	12,6	;volatile
  3914     0C81                     l2923:
  3915     0C81  138C               	bcf	12,7	;volatile
  3916     0C82                     l2925:
  3917     0C82  100D               	bcf	13,0	;volatile
  3918     0C83                     l404:
  3919     0C83  0008               	return
  3920     0C84                     __end_of_inicializar_nuestro_Display:
  3921                           
  3922                           	psect	text7
  3923     0C2B                     __ptext7:	
  3924 ;; *************** function _enviarsiguiente_Dato *****************
  3925 ;; Defined at:
  3926 ;;		line 36 in file "nuestroserial.c"
  3927 ;; Parameters:    Size  Location     Type
  3928 ;;  ser             1    wreg     PTR struct Sr_Serial
  3929 ;;		 -> main@miserial(10), 
  3930 ;; Auto vars:     Size  Location     Type
  3931 ;;  ser             1    2[COMMON] PTR struct Sr_Serial
  3932 ;;		 -> main@miserial(10), 
  3933 ;; Return value:  Size  Location     Type
  3934 ;;                  1    wreg      void 
  3935 ;; Registers used:
  3936 ;;		wreg, fsr1l, fsr1h, status,2, status,0, pclath, cstack
  3937 ;; Tracked objects:
  3938 ;;		On entry : 0/0
  3939 ;;		On exit  : 0/0
  3940 ;;		Unchanged: 0/0
  3941 ;; Data sizes:     COMMON   BANK0   BANK1   BANK2   BANK3   BANK4
  3942 ;;      Params:         0       0       0       0       0       0
  3943 ;;      Locals:         1       0       0       0       0       0
  3944 ;;      Temps:          1       0       0       0       0       0
  3945 ;;      Totals:         2       0       0       0       0       0
  3946 ;;Total ram usage:        2 bytes
  3947 ;; Hardware stack levels used: 1
  3948 ;; Hardware stack levels required when called: 4
  3949 ;; This function calls:
  3950 ;;		_EUSART_Write
  3951 ;; This function is called by:
  3952 ;;		_main
  3953 ;; This function uses a non-reentrant model
  3954 ;;
  3955                           
  3956     0C2B                     _enviarsiguiente_Dato:	
  3957                           ;psect for function _enviarsiguiente_Dato
  3958                           
  3959                           
  3960                           ;incstack = 0
  3961                           ; Regs used in _enviarsiguiente_Dato: [wreg+fsr1l+fsr1h+status,2+status,0+pclath+cstack]
  3962                           ;enviarsiguiente_Dato@ser stored from wreg
  3963     0C2B  00F2               	movwf	enviarsiguiente_Dato@ser
  3964     0C2C                     l3017:
  3965                           
  3966                           ;nuestroserial.c: 37:     EUSART_Write(ser->datosaenviar[ser->contador]);
  3967     0C2C  0872               	movf	enviarsiguiente_Dato@ser,w
  3968     0C2D  3E06               	addlw	6
  3969     0C2E  0086               	movwf	6
  3970     0C2F  0187               	clrf	7
  3971     0C30  0801               	movf	1,w
  3972     0C31  0772               	addwf	enviarsiguiente_Dato@ser,w
  3973     0C32  00F1               	movwf	??_enviarsiguiente_Dato
  3974     0C33  0871               	movf	??_enviarsiguiente_Dato,w
  3975     0C34  0086               	movwf	6
  3976     0C35  0187               	clrf	7
  3977     0C36  0801               	movf	1,w
  3978     0C37  318B  2398  318C   	fcall	_EUSART_Write
  3979     0C3A                     l3019:
  3980                           
  3981                           ;nuestroserial.c: 38:     ser->contador++;
  3982     0C3A  3001               	movlw	1
  3983     0C3B  00F1               	movwf	??_enviarsiguiente_Dato
  3984     0C3C  0872               	movf	enviarsiguiente_Dato@ser,w
  3985     0C3D  3E06               	addlw	6
  3986     0C3E  0086               	movwf	6
  3987     0C3F  0187               	clrf	7
  3988     0C40  0871               	movf	??_enviarsiguiente_Dato,w
  3989     0C41  0781               	addwf	1,f
  3990     0C42                     l609:
  3991     0C42  0008               	return
  3992     0C43                     __end_of_enviarsiguiente_Dato:
  3993                           
  3994                           	psect	text8
  3995     0B98                     __ptext8:	
  3996 ;; *************** function _EUSART_Write *****************
  3997 ;; Defined at:
  3998 ;;		line 132 in file "mcc_generated_files/eusart.c"
  3999 ;; Parameters:    Size  Location     Type
  4000 ;;  txData          1    wreg     unsigned char 
  4001 ;; Auto vars:     Size  Location     Type
  4002 ;;  txData          1    0[COMMON] unsigned char 
  4003 ;; Return value:  Size  Location     Type
  4004 ;;                  1    wreg      void 
  4005 ;; Registers used:
  4006 ;;		wreg
  4007 ;; Tracked objects:
  4008 ;;		On entry : 0/0
  4009 ;;		On exit  : 0/0
  4010 ;;		Unchanged: 0/0
  4011 ;; Data sizes:     COMMON   BANK0   BANK1   BANK2   BANK3   BANK4
  4012 ;;      Params:         0       0       0       0       0       0
  4013 ;;      Locals:         1       0       0       0       0       0
  4014 ;;      Temps:          0       0       0       0       0       0
  4015 ;;      Totals:         1       0       0       0       0       0
  4016 ;;Total ram usage:        1 bytes
  4017 ;; Hardware stack levels used: 1
  4018 ;; Hardware stack levels required when called: 3
  4019 ;; This function calls:
  4020 ;;		Nothing
  4021 ;; This function is called by:
  4022 ;;		_enviarsiguiente_Dato
  4023 ;; This function uses a non-reentrant model
  4024 ;;
  4025                           
  4026     0B98                     _EUSART_Write:	
  4027                           ;psect for function _EUSART_Write
  4028                           
  4029                           
  4030                           ;incstack = 0
  4031                           ; Regs used in _EUSART_Write: [wreg]
  4032                           ;EUSART_Write@txData stored from wreg
  4033     0B98  00F0               	movwf	EUSART_Write@txData
  4034     0B99                     l2475:
  4035     0B99                     l126:	
  4036                           ;mcc_generated_files/eusart.c: 135:     {;mcc_generated_files/eusart.c: 136:     }
  4037                           
  4038                           
  4039                           ;mcc_generated_files/eusart.c: 134:     while(0 == PIR1bits.TXIF)
  4040     0B99  0020               	movlb	0	; select bank0
  4041     0B9A  1E11               	btfss	17,4	;volatile
  4042     0B9B  2B9D               	goto	u2001
  4043     0B9C  2B9E               	goto	u2000
  4044     0B9D                     u2001:
  4045     0B9D  2B99               	goto	l126
  4046     0B9E                     u2000:
  4047     0B9E                     l2477:
  4048                           
  4049                           ;mcc_generated_files/eusart.c: 138:     TXREG = txData;
  4050     0B9E  0870               	movf	EUSART_Write@txData,w
  4051     0B9F  0023               	movlb	3	; select bank3
  4052     0BA0  009A               	movwf	26	;volatile
  4053     0BA1                     l129:
  4054     0BA1  0008               	return
  4055     0BA2                     __end_of_EUSART_Write:
  4056                           
  4057                           	psect	text9
  4058     0CC9                     __ptext9:	
  4059 ;; *************** function _Tm_Procese_tiempo *****************
  4060 ;; Defined at:
  4061 ;;		line 17 in file "nuestrostimers.c"
  4062 ;; Parameters:    Size  Location     Type
  4063 ;;  ctp             1    wreg     PTR struct Tm_Periodico
  4064 ;;		 -> main@timer_ADC(7), 
  4065 ;; Auto vars:     Size  Location     Type
  4066 ;;  ctp             1    4[COMMON] PTR struct Tm_Periodico
  4067 ;;		 -> main@timer_ADC(7), 
  4068 ;; Return value:  Size  Location     Type
  4069 ;;                  1    wreg      void 
  4070 ;; Registers used:
  4071 ;;		wreg, fsr0l, fsr0h, fsr1l, fsr1h, status,2, status,0
  4072 ;; Tracked objects:
  4073 ;;		On entry : 0/0
  4074 ;;		On exit  : 0/0
  4075 ;;		Unchanged: 0/0
  4076 ;; Data sizes:     COMMON   BANK0   BANK1   BANK2   BANK3   BANK4
  4077 ;;      Params:         0       0       0       0       0       0
  4078 ;;      Locals:         1       0       0       0       0       0
  4079 ;;      Temps:          4       0       0       0       0       0
  4080 ;;      Totals:         5       0       0       0       0       0
  4081 ;;Total ram usage:        5 bytes
  4082 ;; Hardware stack levels used: 1
  4083 ;; Hardware stack levels required when called: 3
  4084 ;; This function calls:
  4085 ;;		Nothing
  4086 ;; This function is called by:
  4087 ;;		_main
  4088 ;; This function uses a non-reentrant model
  4089 ;;
  4090                           
  4091     0CC9                     _Tm_Procese_tiempo:	
  4092                           ;psect for function _Tm_Procese_tiempo
  4093                           
  4094                           
  4095                           ;incstack = 0
  4096                           ; Regs used in _Tm_Procese_tiempo: [wreg-fsr1h+status,2+status,0]
  4097                           ;Tm_Procese_tiempo@ctp stored from wreg
  4098     0CC9  00F4               	movwf	Tm_Procese_tiempo@ctp
  4099     0CCA                     l2927:
  4100                           
  4101                           ;nuestrostimers.c: 17: void Tm_Procese_tiempo (Tm_Periodico *ctp);nuestrostimers.c: 18: 
      +                          {;nuestrostimers.c: 21:  if (ctp->banderas & 0x01U)
  4102     0CCA  0874               	movf	Tm_Procese_tiempo@ctp,w
  4103     0CCB  3E06               	addlw	6
  4104     0CCC  0086               	movwf	6
  4105     0CCD  0187               	clrf	7
  4106     0CCE  1C01               	btfss	1,0
  4107     0CCF  2CD1               	goto	u2851
  4108     0CD0  2CD2               	goto	u2850
  4109     0CD1                     u2851:
  4110     0CD1  2CF4               	goto	l2937
  4111     0CD2                     u2850:
  4112     0CD2                     l2929:
  4113                           
  4114                           ;nuestrostimers.c: 22:  {;nuestrostimers.c: 23:   --(ctp->contador);
  4115     0CD2  0874               	movf	Tm_Procese_tiempo@ctp,w
  4116     0CD3  0086               	movwf	6
  4117     0CD4  0187               	clrf	7
  4118     0CD5  3001               	movlw	1
  4119     0CD6  0281               	subwf	1,f
  4120     0CD7  3141               	addfsr 1,1
  4121     0CD8  3000               	movlw	0
  4122     0CD9  3B81               	subwfb	1,f
  4123     0CDA  317F               	addfsr 1,-1
  4124     0CDB                     l2931:
  4125                           
  4126                           ;nuestrostimers.c: 24:   if ( !(ctp->contador) )
  4127     0CDB  0874               	movf	Tm_Procese_tiempo@ctp,w
  4128     0CDC  0086               	movwf	6
  4129     0CDD  0187               	clrf	7
  4130     0CDE  0016               	moviw fsr1++
  4131     0CDF  0401               	iorwf	1,w
  4132     0CE0  1D03               	btfss	3,2
  4133     0CE1  2CE3               	goto	u2861
  4134     0CE2  2CE4               	goto	u2860
  4135     0CE3                     u2861:
  4136     0CE3  2CF4               	goto	l2937
  4137     0CE4                     u2860:
  4138     0CE4                     l2933:
  4139                           
  4140                           ;nuestrostimers.c: 25:   {;nuestrostimers.c: 26:    ctp->banderas |= 0x02U;
  4141     0CE4  0874               	movf	Tm_Procese_tiempo@ctp,w
  4142     0CE5  3E06               	addlw	6
  4143     0CE6  0086               	movwf	6
  4144     0CE7  0187               	clrf	7
  4145     0CE8  1481               	bsf	1,1
  4146     0CE9                     l2935:
  4147                           
  4148                           ;nuestrostimers.c: 27:    ctp->contador = ctp->periodo;
  4149     0CE9  0874               	movf	Tm_Procese_tiempo@ctp,w
  4150     0CEA  3E02               	addlw	2
  4151     0CEB  0086               	movwf	6
  4152     0CEC  0187               	clrf	7
  4153     0CED  0874               	movf	Tm_Procese_tiempo@ctp,w
  4154     0CEE  0084               	movwf	4
  4155     0CEF  0185               	clrf	5
  4156     0CF0  3F40               	moviw [0]fsr1
  4157     0CF1  3F80               	movwi [0]fsr0
  4158     0CF2  3F41               	moviw [1]fsr1
  4159     0CF3  3F81               	movwi [1]fsr0
  4160     0CF4                     l2937:
  4161                           
  4162                           ;nuestrostimers.c: 30:  if (ctp->banderas & 0x04U)
  4163     0CF4  0874               	movf	Tm_Procese_tiempo@ctp,w
  4164     0CF5  3E06               	addlw	6
  4165     0CF6  0086               	movwf	6
  4166     0CF7  0187               	clrf	7
  4167     0CF8  1D01               	btfss	1,2
  4168     0CF9  2CFB               	goto	u2871
  4169     0CFA  2CFC               	goto	u2870
  4170     0CFB                     u2871:
  4171     0CFB  2D12               	goto	l357
  4172     0CFC                     u2870:
  4173     0CFC                     l2939:
  4174                           
  4175                           ;nuestrostimers.c: 31:  ctp->timeout=ctp->timeout-1;
  4176     0CFC  0874               	movf	Tm_Procese_tiempo@ctp,w
  4177     0CFD  3E04               	addlw	4
  4178     0CFE  0086               	movwf	6
  4179     0CFF  0187               	clrf	7
  4180     0D00  3F40               	moviw [0]fsr1
  4181     0D01  00F0               	movwf	??_Tm_Procese_tiempo
  4182     0D02  3F41               	moviw [1]fsr1
  4183     0D03  00F1               	movwf	??_Tm_Procese_tiempo+1
  4184     0D04  0870               	movf	??_Tm_Procese_tiempo,w
  4185     0D05  3EFF               	addlw	255
  4186     0D06  00F2               	movwf	??_Tm_Procese_tiempo+2
  4187     0D07  30FF               	movlw	255
  4188     0D08  3D71               	addwfc	??_Tm_Procese_tiempo+1,w
  4189     0D09  00F3               	movwf	??_Tm_Procese_tiempo+3
  4190     0D0A  0874               	movf	Tm_Procese_tiempo@ctp,w
  4191     0D0B  3E04               	addlw	4
  4192     0D0C  0086               	movwf	6
  4193     0D0D  0187               	clrf	7
  4194     0D0E  0872               	movf	??_Tm_Procese_tiempo+2,w
  4195     0D0F  3FC0               	movwi [0]fsr1
  4196     0D10  0873               	movf	??_Tm_Procese_tiempo+3,w
  4197     0D11  3FC1               	movwi [1]fsr1
  4198     0D12                     l357:
  4199     0D12  0008               	return
  4200     0D13                     __end_of_Tm_Procese_tiempo:
  4201                           
  4202                           	psect	text10
  4203     07E1                     __ptext10:	
  4204 ;; *************** function _Tm_Inicie_periodico *****************
  4205 ;; Defined at:
  4206 ;;		line 11 in file "nuestrostimers.c"
  4207 ;; Parameters:    Size  Location     Type
  4208 ;;  ctp             1    wreg     PTR struct Tm_Periodico
  4209 ;;		 -> main@timer_ADC(7), 
  4210 ;;  periodo         2    0[COMMON] unsigned int 
  4211 ;; Auto vars:     Size  Location     Type
  4212 ;;  ctp             1    3[COMMON] PTR struct Tm_Periodico
  4213 ;;		 -> main@timer_ADC(7), 
  4214 ;; Return value:  Size  Location     Type
  4215 ;;                  1    wreg      void 
  4216 ;; Registers used:
  4217 ;;		wreg, fsr1l, fsr1h, status,2, status,0
  4218 ;; Tracked objects:
  4219 ;;		On entry : 0/0
  4220 ;;		On exit  : 0/0
  4221 ;;		Unchanged: 0/0
  4222 ;; Data sizes:     COMMON   BANK0   BANK1   BANK2   BANK3   BANK4
  4223 ;;      Params:         2       0       0       0       0       0
  4224 ;;      Locals:         1       0       0       0       0       0
  4225 ;;      Temps:          1       0       0       0       0       0
  4226 ;;      Totals:         4       0       0       0       0       0
  4227 ;;Total ram usage:        4 bytes
  4228 ;; Hardware stack levels used: 1
  4229 ;; Hardware stack levels required when called: 3
  4230 ;; This function calls:
  4231 ;;		Nothing
  4232 ;; This function is called by:
  4233 ;;		_main
  4234 ;; This function uses a non-reentrant model
  4235 ;;
  4236                           
  4237     07E1                     _Tm_Inicie_periodico:	
  4238                           ;psect for function _Tm_Inicie_periodico
  4239                           
  4240                           
  4241                           ;incstack = 0
  4242                           ; Regs used in _Tm_Inicie_periodico: [wreg+fsr1l+fsr1h+status,2+status,0]
  4243                           ;Tm_Inicie_periodico@ctp stored from wreg
  4244     07E1  00F3               	movwf	Tm_Inicie_periodico@ctp
  4245     07E2                     l2895:
  4246                           
  4247                           ;nuestrostimers.c: 11: void Tm_Inicie_periodico (Tm_Periodico *ctp,unsigned int periodo)
      +                          ;nuestrostimers.c: 12: {;nuestrostimers.c: 13:  ctp->banderas |= 0x01U;
  4248     07E2  0873               	movf	Tm_Inicie_periodico@ctp,w
  4249     07E3  3E06               	addlw	6
  4250     07E4  0086               	movwf	6
  4251     07E5  0187               	clrf	7
  4252     07E6  1401               	bsf	1,0
  4253                           
  4254                           ;nuestrostimers.c: 14:  ctp->banderas &= ~0x02U;
  4255     07E7  30FD               	movlw	253
  4256     07E8  00F2               	movwf	??_Tm_Inicie_periodico
  4257     07E9  0873               	movf	Tm_Inicie_periodico@ctp,w
  4258     07EA  3E06               	addlw	6
  4259     07EB  0086               	movwf	6
  4260     07EC  0187               	clrf	7
  4261     07ED  0872               	movf	??_Tm_Inicie_periodico,w
  4262     07EE  0581               	andwf	1,f
  4263                           
  4264                           ;nuestrostimers.c: 15:  ctp->contador = ctp->periodo = periodo;
  4265     07EF  0873               	movf	Tm_Inicie_periodico@ctp,w
  4266     07F0  3E02               	addlw	2
  4267     07F1  0086               	movwf	6
  4268     07F2  0187               	clrf	7
  4269     07F3  0870               	movf	Tm_Inicie_periodico@periodo,w
  4270     07F4  3FC0               	movwi [0]fsr1
  4271     07F5  0871               	movf	Tm_Inicie_periodico@periodo+1,w
  4272     07F6  3FC1               	movwi [1]fsr1
  4273     07F7  0873               	movf	Tm_Inicie_periodico@ctp,w
  4274     07F8  0086               	movwf	6
  4275     07F9  0187               	clrf	7
  4276     07FA  0870               	movf	Tm_Inicie_periodico@periodo,w
  4277     07FB  3FC0               	movwi [0]fsr1
  4278     07FC  0871               	movf	Tm_Inicie_periodico@periodo+1,w
  4279     07FD  3FC1               	movwi [1]fsr1
  4280     07FE                     l351:
  4281     07FE  0008               	return
  4282     07FF                     __end_of_Tm_Inicie_periodico:
  4283                           
  4284                           	psect	text11
  4285     0B86                     __ptext11:	
  4286 ;; *************** function _Tm_Hubo_periodico *****************
  4287 ;; Defined at:
  4288 ;;		line 33 in file "nuestrostimers.c"
  4289 ;; Parameters:    Size  Location     Type
  4290 ;;  ctp             1    wreg     PTR struct Tm_Periodico
  4291 ;;		 -> main@timer_ADC(7), 
  4292 ;; Auto vars:     Size  Location     Type
  4293 ;;  ctp             1    0[COMMON] PTR struct Tm_Periodico
  4294 ;;		 -> main@timer_ADC(7), 
  4295 ;; Return value:  Size  Location     Type
  4296 ;;                  1    wreg      unsigned char 
  4297 ;; Registers used:
  4298 ;;		wreg, fsr1l, fsr1h, status,2, status,0
  4299 ;; Tracked objects:
  4300 ;;		On entry : 0/0
  4301 ;;		On exit  : 0/0
  4302 ;;		Unchanged: 0/0
  4303 ;; Data sizes:     COMMON   BANK0   BANK1   BANK2   BANK3   BANK4
  4304 ;;      Params:         0       0       0       0       0       0
  4305 ;;      Locals:         1       0       0       0       0       0
  4306 ;;      Temps:          0       0       0       0       0       0
  4307 ;;      Totals:         1       0       0       0       0       0
  4308 ;;Total ram usage:        1 bytes
  4309 ;; Hardware stack levels used: 1
  4310 ;; Hardware stack levels required when called: 3
  4311 ;; This function calls:
  4312 ;;		Nothing
  4313 ;; This function is called by:
  4314 ;;		_main
  4315 ;; This function uses a non-reentrant model
  4316 ;;
  4317                           
  4318     0B86                     _Tm_Hubo_periodico:	
  4319                           ;psect for function _Tm_Hubo_periodico
  4320                           
  4321                           
  4322                           ;incstack = 0
  4323                           ; Regs used in _Tm_Hubo_periodico: [wreg+fsr1l+fsr1h+status,2+status,0]
  4324                           ;Tm_Hubo_periodico@ctp stored from wreg
  4325     0B86  00F0               	movwf	Tm_Hubo_periodico@ctp
  4326     0B87                     l2969:
  4327                           
  4328                           ;nuestrostimers.c: 33: char Tm_Hubo_periodico (Tm_Periodico *ctp);nuestrostimers.c: 34: 
      +                          {;nuestrostimers.c: 35:  return (ctp->banderas & 0x02U);
  4329     0B87  0870               	movf	Tm_Hubo_periodico@ctp,w
  4330     0B88  3E06               	addlw	6
  4331     0B89  0086               	movwf	6
  4332     0B8A  0187               	clrf	7
  4333     0B8B  0801               	movf	1,w
  4334     0B8C  3902               	andlw	2
  4335     0B8D                     l360:
  4336     0B8D  0008               	return
  4337     0B8E                     __end_of_Tm_Hubo_periodico:
  4338                           
  4339                           	psect	text12
  4340     0B8E                     __ptext12:	
  4341 ;; *************** function _Tm_Baje_periodico *****************
  4342 ;; Defined at:
  4343 ;;		line 37 in file "nuestrostimers.c"
  4344 ;; Parameters:    Size  Location     Type
  4345 ;;  ctp             1    wreg     PTR struct Tm_Periodico
  4346 ;;		 -> main@timer_ADC(7), 
  4347 ;; Auto vars:     Size  Location     Type
  4348 ;;  ctp             1    1[COMMON] PTR struct Tm_Periodico
  4349 ;;		 -> main@timer_ADC(7), 
  4350 ;; Return value:  Size  Location     Type
  4351 ;;                  1    wreg      void 
  4352 ;; Registers used:
  4353 ;;		wreg, fsr1l, fsr1h, status,2, status,0
  4354 ;; Tracked objects:
  4355 ;;		On entry : 0/0
  4356 ;;		On exit  : 0/0
  4357 ;;		Unchanged: 0/0
  4358 ;; Data sizes:     COMMON   BANK0   BANK1   BANK2   BANK3   BANK4
  4359 ;;      Params:         0       0       0       0       0       0
  4360 ;;      Locals:         1       0       0       0       0       0
  4361 ;;      Temps:          1       0       0       0       0       0
  4362 ;;      Totals:         2       0       0       0       0       0
  4363 ;;Total ram usage:        2 bytes
  4364 ;; Hardware stack levels used: 1
  4365 ;; Hardware stack levels required when called: 3
  4366 ;; This function calls:
  4367 ;;		Nothing
  4368 ;; This function is called by:
  4369 ;;		_main
  4370 ;; This function uses a non-reentrant model
  4371 ;;
  4372                           
  4373     0B8E                     _Tm_Baje_periodico:	
  4374                           ;psect for function _Tm_Baje_periodico
  4375                           
  4376                           
  4377                           ;incstack = 0
  4378                           ; Regs used in _Tm_Baje_periodico: [wreg+fsr1l+fsr1h+status,2+status,0]
  4379                           ;Tm_Baje_periodico@ctp stored from wreg
  4380     0B8E  00F1               	movwf	Tm_Baje_periodico@ctp
  4381     0B8F                     l2973:
  4382                           
  4383                           ;nuestrostimers.c: 37: void Tm_Baje_periodico (Tm_Periodico *ctp);nuestrostimers.c: 38: 
      +                          {;nuestrostimers.c: 39:  ctp->banderas &= ~0x02U;
  4384     0B8F  30FD               	movlw	253
  4385     0B90  00F0               	movwf	??_Tm_Baje_periodico
  4386     0B91  0871               	movf	Tm_Baje_periodico@ctp,w
  4387     0B92  3E06               	addlw	6
  4388     0B93  0086               	movwf	6
  4389     0B94  0187               	clrf	7
  4390     0B95  0870               	movf	??_Tm_Baje_periodico,w
  4391     0B96  0581               	andwf	1,f
  4392     0B97                     l363:
  4393     0B97  0008               	return
  4394     0B98                     __end_of_Tm_Baje_periodico:
  4395                           
  4396                           	psect	text13
  4397     0C15                     __ptext13:	
  4398 ;; *************** function _SYSTEM_Initialize *****************
  4399 ;; Defined at:
  4400 ;;		line 50 in file "mcc_generated_files/mcc.c"
  4401 ;; Parameters:    Size  Location     Type
  4402 ;;		None
  4403 ;; Auto vars:     Size  Location     Type
  4404 ;;		None
  4405 ;; Return value:  Size  Location     Type
  4406 ;;                  1    wreg      void 
  4407 ;; Registers used:
  4408 ;;		wreg, status,2, status,0, pclath, cstack
  4409 ;; Tracked objects:
  4410 ;;		On entry : 0/0
  4411 ;;		On exit  : 0/0
  4412 ;;		Unchanged: 0/0
  4413 ;; Data sizes:     COMMON   BANK0   BANK1   BANK2   BANK3   BANK4
  4414 ;;      Params:         0       0       0       0       0       0
  4415 ;;      Locals:         0       0       0       0       0       0
  4416 ;;      Temps:          0       0       0       0       0       0
  4417 ;;      Totals:         0       0       0       0       0       0
  4418 ;;Total ram usage:        0 bytes
  4419 ;; Hardware stack levels used: 1
  4420 ;; Hardware stack levels required when called: 5
  4421 ;; This function calls:
  4422 ;;		_ADC_Initialize
  4423 ;;		_EUSART_Initialize
  4424 ;;		_FVR_Initialize
  4425 ;;		_OSCILLATOR_Initialize
  4426 ;;		_PIN_MANAGER_Initialize
  4427 ;;		_TMR2_Initialize
  4428 ;;		_WDT_Initialize
  4429 ;; This function is called by:
  4430 ;;		_main
  4431 ;; This function uses a non-reentrant model
  4432 ;;
  4433                           
  4434     0C15                     _SYSTEM_Initialize:	
  4435                           ;psect for function _SYSTEM_Initialize
  4436                           
  4437     0C15                     l2859:	
  4438                           ;incstack = 0
  4439                           ; Regs used in _SYSTEM_Initialize: [wreg+status,2+status,0+pclath+cstack]
  4440                           
  4441                           
  4442                           ;mcc_generated_files/mcc.c: 53:     PIN_MANAGER_Initialize();
  4443     0C15  318B  23FF  318C   	fcall	_PIN_MANAGER_Initialize
  4444                           
  4445                           ;mcc_generated_files/mcc.c: 54:     OSCILLATOR_Initialize();
  4446     0C18  318B  237F  318C   	fcall	_OSCILLATOR_Initialize
  4447                           
  4448                           ;mcc_generated_files/mcc.c: 55:     WDT_Initialize();
  4449     0C1B  318B  2350  318C   	fcall	_WDT_Initialize
  4450                           
  4451                           ;mcc_generated_files/mcc.c: 56:     FVR_Initialize();
  4452     0C1E  318B  234C  318C   	fcall	_FVR_Initialize
  4453                           
  4454                           ;mcc_generated_files/mcc.c: 57:     ADC_Initialize();
  4455     0C21  318B  23DD  318C   	fcall	_ADC_Initialize
  4456                           
  4457                           ;mcc_generated_files/mcc.c: 58:     TMR2_Initialize();
  4458     0C24  318B  23ED  318C   	fcall	_TMR2_Initialize
  4459                           
  4460                           ;mcc_generated_files/mcc.c: 59:     EUSART_Initialize();
  4461     0C27  318C  2484  318C   	fcall	_EUSART_Initialize
  4462     0C2A                     l25:
  4463     0C2A  0008               	return
  4464     0C2B                     __end_of_SYSTEM_Initialize:
  4465                           
  4466                           	psect	text14
  4467     0B50                     __ptext14:	
  4468 ;; *************** function _WDT_Initialize *****************
  4469 ;; Defined at:
  4470 ;;		line 72 in file "mcc_generated_files/mcc.c"
  4471 ;; Parameters:    Size  Location     Type
  4472 ;;		None
  4473 ;; Auto vars:     Size  Location     Type
  4474 ;;		None
  4475 ;; Return value:  Size  Location     Type
  4476 ;;                  1    wreg      void 
  4477 ;; Registers used:
  4478 ;;		wreg
  4479 ;; Tracked objects:
  4480 ;;		On entry : 0/0
  4481 ;;		On exit  : 0/0
  4482 ;;		Unchanged: 0/0
  4483 ;; Data sizes:     COMMON   BANK0   BANK1   BANK2   BANK3   BANK4
  4484 ;;      Params:         0       0       0       0       0       0
  4485 ;;      Locals:         0       0       0       0       0       0
  4486 ;;      Temps:          0       0       0       0       0       0
  4487 ;;      Totals:         0       0       0       0       0       0
  4488 ;;Total ram usage:        0 bytes
  4489 ;; Hardware stack levels used: 1
  4490 ;; Hardware stack levels required when called: 3
  4491 ;; This function calls:
  4492 ;;		Nothing
  4493 ;; This function is called by:
  4494 ;;		_SYSTEM_Initialize
  4495 ;; This function uses a non-reentrant model
  4496 ;;
  4497                           
  4498     0B50                     _WDT_Initialize:	
  4499                           ;psect for function _WDT_Initialize
  4500                           
  4501     0B50                     l2437:	
  4502                           ;incstack = 0
  4503                           ; Regs used in _WDT_Initialize: [wreg]
  4504                           
  4505                           
  4506                           ;mcc_generated_files/mcc.c: 75:     WDTCON = 0x16;
  4507     0B50  3016               	movlw	22
  4508     0B51  0021               	movlb	1	; select bank1
  4509     0B52  0097               	movwf	23	;volatile
  4510     0B53                     l31:
  4511     0B53  0008               	return
  4512     0B54                     __end_of_WDT_Initialize:
  4513                           
  4514                           	psect	text15
  4515     0BED                     __ptext15:	
  4516 ;; *************** function _TMR2_Initialize *****************
  4517 ;; Defined at:
  4518 ;;		line 64 in file "mcc_generated_files/tmr2.c"
  4519 ;; Parameters:    Size  Location     Type
  4520 ;;		None
  4521 ;; Auto vars:     Size  Location     Type
  4522 ;;		None
  4523 ;; Return value:  Size  Location     Type
  4524 ;;                  1    wreg      void 
  4525 ;; Registers used:
  4526 ;;		wreg, status,2, status,0, pclath, cstack
  4527 ;; Tracked objects:
  4528 ;;		On entry : 0/0
  4529 ;;		On exit  : 0/0
  4530 ;;		Unchanged: 0/0
  4531 ;; Data sizes:     COMMON   BANK0   BANK1   BANK2   BANK3   BANK4
  4532 ;;      Params:         0       0       0       0       0       0
  4533 ;;      Locals:         0       0       0       0       0       0
  4534 ;;      Temps:          0       0       0       0       0       0
  4535 ;;      Totals:         0       0       0       0       0       0
  4536 ;;Total ram usage:        0 bytes
  4537 ;; Hardware stack levels used: 1
  4538 ;; Hardware stack levels required when called: 4
  4539 ;; This function calls:
  4540 ;;		_TMR2_SetInterruptHandler
  4541 ;; This function is called by:
  4542 ;;		_SYSTEM_Initialize
  4543 ;; This function uses a non-reentrant model
  4544 ;;
  4545                           
  4546     0BED                     _TMR2_Initialize:	
  4547                           ;psect for function _TMR2_Initialize
  4548                           
  4549     0BED                     l2451:	
  4550                           ;incstack = 0
  4551                           ; Regs used in _TMR2_Initialize: [wreg+status,2+status,0+pclath+cstack]
  4552                           
  4553                           
  4554                           ;mcc_generated_files/tmr2.c: 69:     PR2 = 0x3E;
  4555     0BED  303E               	movlw	62
  4556     0BEE  0020               	movlb	0	; select bank0
  4557     0BEF  009B               	movwf	27	;volatile
  4558     0BF0                     l2453:
  4559                           
  4560                           ;mcc_generated_files/tmr2.c: 72:     TMR2 = 0x00;
  4561     0BF0  019A               	clrf	26	;volatile
  4562     0BF1                     l2455:
  4563                           
  4564                           ;mcc_generated_files/tmr2.c: 75:     PIR1bits.TMR2IF = 0;
  4565     0BF1  1091               	bcf	17,1	;volatile
  4566     0BF2                     l2457:
  4567                           
  4568                           ;mcc_generated_files/tmr2.c: 78:     PIE1bits.TMR2IE = 1;
  4569     0BF2  0021               	movlb	1	; select bank1
  4570     0BF3  1491               	bsf	17,1	;volatile
  4571     0BF4                     l2459:
  4572                           
  4573                           ;mcc_generated_files/tmr2.c: 81:     TMR2_SetInterruptHandler(TMR2_DefaultInterruptHandl
      +                          er);
  4574     0BF4  30FF               	movlw	low _TMR2_DefaultInterruptHandler
  4575     0BF5  00F0               	movwf	TMR2_SetInterruptHandler@InterruptHandler
  4576     0BF6  3007               	movlw	high _TMR2_DefaultInterruptHandler
  4577     0BF7  00F1               	movwf	TMR2_SetInterruptHandler@InterruptHandler+1
  4578     0BF8  318B  2372  318B   	fcall	_TMR2_SetInterruptHandler
  4579     0BFB                     l2461:
  4580                           
  4581                           ;mcc_generated_files/tmr2.c: 84:     T2CON = 0x4E;
  4582     0BFB  304E               	movlw	78
  4583     0BFC  0020               	movlb	0	; select bank0
  4584     0BFD  009C               	movwf	28	;volatile
  4585     0BFE                     l234:
  4586     0BFE  0008               	return
  4587     0BFF                     __end_of_TMR2_Initialize:
  4588                           
  4589                           	psect	text16
  4590     0B72                     __ptext16:	
  4591 ;; *************** function _TMR2_SetInterruptHandler *****************
  4592 ;; Defined at:
  4593 ;;		line 132 in file "mcc_generated_files/tmr2.c"
  4594 ;; Parameters:    Size  Location     Type
  4595 ;;  InterruptHan    2    0[COMMON] PTR FTN()void 
  4596 ;;		 -> miatenciontmr2(1), TMR2_DefaultInterruptHandler(1), 
  4597 ;; Auto vars:     Size  Location     Type
  4598 ;;		None
  4599 ;; Return value:  Size  Location     Type
  4600 ;;                  1    wreg      void 
  4601 ;; Registers used:
  4602 ;;		wreg
  4603 ;; Tracked objects:
  4604 ;;		On entry : 0/0
  4605 ;;		On exit  : 0/0
  4606 ;;		Unchanged: 0/0
  4607 ;; Data sizes:     COMMON   BANK0   BANK1   BANK2   BANK3   BANK4
  4608 ;;      Params:         2       0       0       0       0       0
  4609 ;;      Locals:         0       0       0       0       0       0
  4610 ;;      Temps:          0       0       0       0       0       0
  4611 ;;      Totals:         2       0       0       0       0       0
  4612 ;;Total ram usage:        2 bytes
  4613 ;; Hardware stack levels used: 1
  4614 ;; Hardware stack levels required when called: 3
  4615 ;; This function calls:
  4616 ;;		Nothing
  4617 ;; This function is called by:
  4618 ;;		_TMR2_Initialize
  4619 ;;		_main
  4620 ;; This function uses a non-reentrant model
  4621 ;;
  4622                           
  4623     0B72                     _TMR2_SetInterruptHandler:	
  4624                           ;psect for function _TMR2_SetInterruptHandler
  4625                           
  4626     0B72                     l2209:	
  4627                           ;incstack = 0
  4628                           ; Regs used in _TMR2_SetInterruptHandler: [wreg]
  4629                           
  4630                           
  4631                           ;mcc_generated_files/tmr2.c: 133:     TMR2_InterruptHandler = InterruptHandler;
  4632     0B72  0871               	movf	TMR2_SetInterruptHandler@InterruptHandler+1,w
  4633     0B73  0021               	movlb	1	; select bank1
  4634     0B74  00D0               	movwf	(_TMR2_InterruptHandler+1)^(0+128)
  4635     0B75  0870               	movf	TMR2_SetInterruptHandler@InterruptHandler,w
  4636     0B76  00CF               	movwf	_TMR2_InterruptHandler^(0+128)
  4637     0B77                     l256:
  4638     0B77  0008               	return
  4639     0B78                     __end_of_TMR2_SetInterruptHandler:
  4640                           
  4641                           	psect	text17
  4642     0BFF                     __ptext17:	
  4643 ;; *************** function _PIN_MANAGER_Initialize *****************
  4644 ;; Defined at:
  4645 ;;		line 55 in file "mcc_generated_files/pin_manager.c"
  4646 ;; Parameters:    Size  Location     Type
  4647 ;;		None
  4648 ;; Auto vars:     Size  Location     Type
  4649 ;;		None
  4650 ;; Return value:  Size  Location     Type
  4651 ;;                  1    wreg      void 
  4652 ;; Registers used:
  4653 ;;		wreg, status,2
  4654 ;; Tracked objects:
  4655 ;;		On entry : 0/0
  4656 ;;		On exit  : 0/0
  4657 ;;		Unchanged: 0/0
  4658 ;; Data sizes:     COMMON   BANK0   BANK1   BANK2   BANK3   BANK4
  4659 ;;      Params:         0       0       0       0       0       0
  4660 ;;      Locals:         0       0       0       0       0       0
  4661 ;;      Temps:          0       0       0       0       0       0
  4662 ;;      Totals:         0       0       0       0       0       0
  4663 ;;Total ram usage:        0 bytes
  4664 ;; Hardware stack levels used: 1
  4665 ;; Hardware stack levels required when called: 3
  4666 ;; This function calls:
  4667 ;;		Nothing
  4668 ;; This function is called by:
  4669 ;;		_SYSTEM_Initialize
  4670 ;; This function uses a non-reentrant model
  4671 ;;
  4672                           
  4673     0BFF                     _PIN_MANAGER_Initialize:	
  4674                           ;psect for function _PIN_MANAGER_Initialize
  4675                           
  4676     0BFF                     l2419:	
  4677                           ;incstack = 0
  4678                           ; Regs used in _PIN_MANAGER_Initialize: [wreg+status,2]
  4679                           
  4680                           
  4681                           ;mcc_generated_files/pin_manager.c: 60:     LATA = 0x00;
  4682     0BFF  0022               	movlb	2	; select bank2
  4683     0C00  018C               	clrf	12	;volatile
  4684                           
  4685                           ;mcc_generated_files/pin_manager.c: 61:     LATB = 0x00;
  4686     0C01  018D               	clrf	13	;volatile
  4687     0C02                     l2421:
  4688                           
  4689                           ;mcc_generated_files/pin_manager.c: 66:     TRISA = 0x21;
  4690     0C02  3021               	movlw	33
  4691     0C03  0021               	movlb	1	; select bank1
  4692     0C04  008C               	movwf	12	;volatile
  4693     0C05                     l2423:
  4694                           
  4695                           ;mcc_generated_files/pin_manager.c: 67:     TRISB = 0xC6;
  4696     0C05  30C6               	movlw	198
  4697     0C06  008D               	movwf	13	;volatile
  4698     0C07                     l2425:
  4699                           
  4700                           ;mcc_generated_files/pin_manager.c: 72:     ANSELB = 0xF8;
  4701     0C07  30F8               	movlw	248
  4702     0C08  0023               	movlb	3	; select bank3
  4703     0C09  008D               	movwf	13	;volatile
  4704     0C0A                     l2427:
  4705                           
  4706                           ;mcc_generated_files/pin_manager.c: 73:     ANSELA = 0x1F;
  4707     0C0A  301F               	movlw	31
  4708     0C0B  008C               	movwf	12	;volatile
  4709                           
  4710                           ;mcc_generated_files/pin_manager.c: 78:     WPUB = 0x00;
  4711     0C0C  0024               	movlb	4	; select bank4
  4712     0C0D  018D               	clrf	13	;volatile
  4713                           
  4714                           ;mcc_generated_files/pin_manager.c: 79:     WPUA = 0x00;
  4715     0C0E  018C               	clrf	12	;volatile
  4716     0C0F                     l2429:
  4717                           
  4718                           ;mcc_generated_files/pin_manager.c: 80:     OPTION_REGbits.nWPUEN = 1;
  4719     0C0F  0021               	movlb	1	; select bank1
  4720     0C10  1795               	bsf	21,7	;volatile
  4721                           
  4722                           ;mcc_generated_files/pin_manager.c: 86:     APFCON0 = 0x00;
  4723     0C11  0022               	movlb	2	; select bank2
  4724     0C12  019D               	clrf	29	;volatile
  4725                           
  4726                           ;mcc_generated_files/pin_manager.c: 87:     APFCON1 = 0x00;
  4727     0C13  019E               	clrf	30	;volatile
  4728     0C14                     l56:
  4729     0C14  0008               	return
  4730     0C15                     __end_of_PIN_MANAGER_Initialize:
  4731                           
  4732                           	psect	text18
  4733     0B7F                     __ptext18:	
  4734 ;; *************** function _OSCILLATOR_Initialize *****************
  4735 ;; Defined at:
  4736 ;;		line 62 in file "mcc_generated_files/mcc.c"
  4737 ;; Parameters:    Size  Location     Type
  4738 ;;		None
  4739 ;; Auto vars:     Size  Location     Type
  4740 ;;		None
  4741 ;; Return value:  Size  Location     Type
  4742 ;;                  1    wreg      void 
  4743 ;; Registers used:
  4744 ;;		wreg, status,2
  4745 ;; Tracked objects:
  4746 ;;		On entry : 0/0
  4747 ;;		On exit  : 0/0
  4748 ;;		Unchanged: 0/0
  4749 ;; Data sizes:     COMMON   BANK0   BANK1   BANK2   BANK3   BANK4
  4750 ;;      Params:         0       0       0       0       0       0
  4751 ;;      Locals:         0       0       0       0       0       0
  4752 ;;      Temps:          0       0       0       0       0       0
  4753 ;;      Totals:         0       0       0       0       0       0
  4754 ;;Total ram usage:        0 bytes
  4755 ;; Hardware stack levels used: 1
  4756 ;; Hardware stack levels required when called: 3
  4757 ;; This function calls:
  4758 ;;		Nothing
  4759 ;; This function is called by:
  4760 ;;		_SYSTEM_Initialize
  4761 ;; This function uses a non-reentrant model
  4762 ;;
  4763                           
  4764     0B7F                     _OSCILLATOR_Initialize:	
  4765                           ;psect for function _OSCILLATOR_Initialize
  4766                           
  4767     0B7F                     l2431:	
  4768                           ;incstack = 0
  4769                           ; Regs used in _OSCILLATOR_Initialize: [wreg+status,2]
  4770                           
  4771                           
  4772                           ;mcc_generated_files/mcc.c: 65:     OSCCON = 0x72;
  4773     0B7F  3072               	movlw	114
  4774     0B80  0021               	movlb	1	; select bank1
  4775     0B81  0099               	movwf	25	;volatile
  4776     0B82                     l2433:
  4777                           
  4778                           ;mcc_generated_files/mcc.c: 67:     OSCTUNE = 0x00;
  4779     0B82  0198               	clrf	24	;volatile
  4780     0B83                     l2435:
  4781                           
  4782                           ;mcc_generated_files/mcc.c: 69:     BORCON = 0x00;
  4783     0B83  0022               	movlb	2	; select bank2
  4784     0B84  0196               	clrf	22	;volatile
  4785     0B85                     l28:
  4786     0B85  0008               	return
  4787     0B86                     __end_of_OSCILLATOR_Initialize:
  4788                           
  4789                           	psect	text19
  4790     0B4C                     __ptext19:	
  4791 ;; *************** function _FVR_Initialize *****************
  4792 ;; Defined at:
  4793 ;;		line 58 in file "mcc_generated_files/fvr.c"
  4794 ;; Parameters:    Size  Location     Type
  4795 ;;		None
  4796 ;; Auto vars:     Size  Location     Type
  4797 ;;		None
  4798 ;; Return value:  Size  Location     Type
  4799 ;;                  1    wreg      void 
  4800 ;; Registers used:
  4801 ;;		wreg
  4802 ;; Tracked objects:
  4803 ;;		On entry : 0/0
  4804 ;;		On exit  : 0/0
  4805 ;;		Unchanged: 0/0
  4806 ;; Data sizes:     COMMON   BANK0   BANK1   BANK2   BANK3   BANK4
  4807 ;;      Params:         0       0       0       0       0       0
  4808 ;;      Locals:         0       0       0       0       0       0
  4809 ;;      Temps:          0       0       0       0       0       0
  4810 ;;      Totals:         0       0       0       0       0       0
  4811 ;;Total ram usage:        0 bytes
  4812 ;; Hardware stack levels used: 1
  4813 ;; Hardware stack levels required when called: 3
  4814 ;; This function calls:
  4815 ;;		Nothing
  4816 ;; This function is called by:
  4817 ;;		_SYSTEM_Initialize
  4818 ;; This function uses a non-reentrant model
  4819 ;;
  4820                           
  4821     0B4C                     _FVR_Initialize:	
  4822                           ;psect for function _FVR_Initialize
  4823                           
  4824     0B4C                     l2439:	
  4825                           ;incstack = 0
  4826                           ; Regs used in _FVR_Initialize: [wreg]
  4827                           
  4828                           
  4829                           ;mcc_generated_files/fvr.c: 61:     FVRCON = 0x8A;
  4830     0B4C  308A               	movlw	138
  4831     0B4D  0022               	movlb	2	; select bank2
  4832     0B4E  0097               	movwf	23	;volatile
  4833     0B4F                     l210:
  4834     0B4F  0008               	return
  4835     0B50                     __end_of_FVR_Initialize:
  4836                           
  4837                           	psect	text20
  4838     0C84                     __ptext20:	
  4839 ;; *************** function _EUSART_Initialize *****************
  4840 ;; Defined at:
  4841 ;;		line 66 in file "mcc_generated_files/eusart.c"
  4842 ;; Parameters:    Size  Location     Type
  4843 ;;		None
  4844 ;; Auto vars:     Size  Location     Type
  4845 ;;		None
  4846 ;; Return value:  Size  Location     Type
  4847 ;;                  1    wreg      void 
  4848 ;; Registers used:
  4849 ;;		wreg, status,2, status,0, pclath, cstack
  4850 ;; Tracked objects:
  4851 ;;		On entry : 0/0
  4852 ;;		On exit  : 0/0
  4853 ;;		Unchanged: 0/0
  4854 ;; Data sizes:     COMMON   BANK0   BANK1   BANK2   BANK3   BANK4
  4855 ;;      Params:         0       0       0       0       0       0
  4856 ;;      Locals:         0       0       0       0       0       0
  4857 ;;      Temps:          0       0       0       0       0       0
  4858 ;;      Totals:         0       0       0       0       0       0
  4859 ;;Total ram usage:        0 bytes
  4860 ;; Hardware stack levels used: 1
  4861 ;; Hardware stack levels required when called: 4
  4862 ;; This function calls:
  4863 ;;		_EUSART_SetErrorHandler
  4864 ;;		_EUSART_SetFramingErrorHandler
  4865 ;;		_EUSART_SetOverrunErrorHandler
  4866 ;; This function is called by:
  4867 ;;		_SYSTEM_Initialize
  4868 ;; This function uses a non-reentrant model
  4869 ;;
  4870                           
  4871     0C84                     _EUSART_Initialize:	
  4872                           ;psect for function _EUSART_Initialize
  4873                           
  4874     0C84                     l2463:	
  4875                           ;incstack = 0
  4876                           ; Regs used in _EUSART_Initialize: [wreg+status,2+status,0+pclath+cstack]
  4877                           
  4878                           
  4879                           ;mcc_generated_files/eusart.c: 71:     BAUDCON = 0x08;
  4880     0C84  3008               	movlw	8
  4881     0C85  0023               	movlb	3	; select bank3
  4882     0C86  009F               	movwf	31	;volatile
  4883                           
  4884                           ;mcc_generated_files/eusart.c: 74:     RCSTA = 0x90;
  4885     0C87  3090               	movlw	144
  4886     0C88  009D               	movwf	29	;volatile
  4887                           
  4888                           ;mcc_generated_files/eusart.c: 77:     TXSTA = 0x24;
  4889     0C89  3024               	movlw	36
  4890     0C8A  009E               	movwf	30	;volatile
  4891                           
  4892                           ;mcc_generated_files/eusart.c: 80:     SPBRGL = 0xCF;
  4893     0C8B  30CF               	movlw	207
  4894     0C8C  009B               	movwf	27	;volatile
  4895     0C8D                     l2465:
  4896                           
  4897                           ;mcc_generated_files/eusart.c: 83:     SPBRGH = 0x00;
  4898     0C8D  019C               	clrf	28	;volatile
  4899     0C8E                     l2467:
  4900                           
  4901                           ;mcc_generated_files/eusart.c: 86:     EUSART_SetFramingErrorHandler(EUSART_DefaultFrami
      +                          ngErrorHandler);
  4902     0C8E  3000               	movlw	0
  4903     0C8F  00F0               	movwf	EUSART_SetFramingErrorHandler@interruptHandler
  4904     0C90  3000               	movlw	0
  4905     0C91  00F1               	movwf	EUSART_SetFramingErrorHandler@interruptHandler+1
  4906     0C92  318B  2366  318C   	fcall	_EUSART_SetFramingErrorHandler
  4907     0C95                     l2469:
  4908                           
  4909                           ;mcc_generated_files/eusart.c: 87:     EUSART_SetOverrunErrorHandler(EUSART_DefaultOverr
      +                          unErrorHandler);
  4910     0C95  3000               	movlw	0
  4911     0C96  00F0               	movwf	EUSART_SetOverrunErrorHandler@interruptHandler
  4912     0C97  3000               	movlw	0
  4913     0C98  00F1               	movwf	EUSART_SetOverrunErrorHandler@interruptHandler+1
  4914     0C99  318B  236C  318C   	fcall	_EUSART_SetOverrunErrorHandler
  4915     0C9C                     l2471:
  4916                           
  4917                           ;mcc_generated_files/eusart.c: 88:     EUSART_SetErrorHandler(EUSART_DefaultErrorHandler
      +                          );
  4918     0C9C  3000               	movlw	0
  4919     0C9D  00F0               	movwf	EUSART_SetErrorHandler@interruptHandler
  4920     0C9E  3000               	movlw	0
  4921     0C9F  00F1               	movwf	EUSART_SetErrorHandler@interruptHandler+1
  4922     0CA0  318B  2360  318C   	fcall	_EUSART_SetErrorHandler
  4923     0CA3                     l2473:
  4924                           
  4925                           ;mcc_generated_files/eusart.c: 90:     eusartRxLastError.status = 0;
  4926     0CA3  0021               	movlb	1	; select bank1
  4927     0CA4  01CE               	clrf	_eusartRxLastError^(0+128)	;volatile
  4928     0CA5                     l102:
  4929     0CA5  0008               	return
  4930     0CA6                     __end_of_EUSART_Initialize:
  4931                           
  4932                           	psect	text21
  4933     0B6C                     __ptext21:	
  4934 ;; *************** function _EUSART_SetOverrunErrorHandler *****************
  4935 ;; Defined at:
  4936 ;;		line 161 in file "mcc_generated_files/eusart.c"
  4937 ;; Parameters:    Size  Location     Type
  4938 ;;  interruptHan    2    0[COMMON] PTR FTN()void 
  4939 ;;		 -> EUSART_DefaultOverrunErrorHandler(1), 
  4940 ;; Auto vars:     Size  Location     Type
  4941 ;;		None
  4942 ;; Return value:  Size  Location     Type
  4943 ;;                  1    wreg      void 
  4944 ;; Registers used:
  4945 ;;		wreg
  4946 ;; Tracked objects:
  4947 ;;		On entry : 0/0
  4948 ;;		On exit  : 0/0
  4949 ;;		Unchanged: 0/0
  4950 ;; Data sizes:     COMMON   BANK0   BANK1   BANK2   BANK3   BANK4
  4951 ;;      Params:         2       0       0       0       0       0
  4952 ;;      Locals:         0       0       0       0       0       0
  4953 ;;      Temps:          0       0       0       0       0       0
  4954 ;;      Totals:         2       0       0       0       0       0
  4955 ;;Total ram usage:        2 bytes
  4956 ;; Hardware stack levels used: 1
  4957 ;; Hardware stack levels required when called: 3
  4958 ;; This function calls:
  4959 ;;		Nothing
  4960 ;; This function is called by:
  4961 ;;		_EUSART_Initialize
  4962 ;; This function uses a non-reentrant model
  4963 ;;
  4964                           
  4965     0B6C                     _EUSART_SetOverrunErrorHandler:	
  4966                           ;psect for function _EUSART_SetOverrunErrorHandler
  4967                           
  4968     0B6C                     l2203:	
  4969                           ;incstack = 0
  4970                           ; Regs used in _EUSART_SetOverrunErrorHandler: [wreg]
  4971                           
  4972                           
  4973                           ;mcc_generated_files/eusart.c: 162:     EUSART_OverrunErrorHandler = interruptHandler;
  4974     0B6C  0871               	movf	EUSART_SetOverrunErrorHandler@interruptHandler+1,w
  4975     0B6D  0021               	movlb	1	; select bank1
  4976     0B6E  00D6               	movwf	(_EUSART_OverrunErrorHandler+1)^(0+128)
  4977     0B6F  0870               	movf	EUSART_SetOverrunErrorHandler@interruptHandler,w
  4978     0B70  00D5               	movwf	_EUSART_OverrunErrorHandler^(0+128)
  4979     0B71                     l144:
  4980     0B71  0008               	return
  4981     0B72                     __end_of_EUSART_SetOverrunErrorHandler:
  4982                           
  4983                           	psect	text22
  4984     0B66                     __ptext22:	
  4985 ;; *************** function _EUSART_SetFramingErrorHandler *****************
  4986 ;; Defined at:
  4987 ;;		line 157 in file "mcc_generated_files/eusart.c"
  4988 ;; Parameters:    Size  Location     Type
  4989 ;;  interruptHan    2    0[COMMON] PTR FTN()void 
  4990 ;;		 -> EUSART_DefaultFramingErrorHandler(1), 
  4991 ;; Auto vars:     Size  Location     Type
  4992 ;;		None
  4993 ;; Return value:  Size  Location     Type
  4994 ;;                  1    wreg      void 
  4995 ;; Registers used:
  4996 ;;		wreg
  4997 ;; Tracked objects:
  4998 ;;		On entry : 0/0
  4999 ;;		On exit  : 0/0
  5000 ;;		Unchanged: 0/0
  5001 ;; Data sizes:     COMMON   BANK0   BANK1   BANK2   BANK3   BANK4
  5002 ;;      Params:         2       0       0       0       0       0
  5003 ;;      Locals:         0       0       0       0       0       0
  5004 ;;      Temps:          0       0       0       0       0       0
  5005 ;;      Totals:         2       0       0       0       0       0
  5006 ;;Total ram usage:        2 bytes
  5007 ;; Hardware stack levels used: 1
  5008 ;; Hardware stack levels required when called: 3
  5009 ;; This function calls:
  5010 ;;		Nothing
  5011 ;; This function is called by:
  5012 ;;		_EUSART_Initialize
  5013 ;; This function uses a non-reentrant model
  5014 ;;
  5015                           
  5016     0B66                     _EUSART_SetFramingErrorHandler:	
  5017                           ;psect for function _EUSART_SetFramingErrorHandler
  5018                           
  5019     0B66                     l2201:	
  5020                           ;incstack = 0
  5021                           ; Regs used in _EUSART_SetFramingErrorHandler: [wreg]
  5022                           
  5023                           
  5024                           ;mcc_generated_files/eusart.c: 158:     EUSART_FramingErrorHandler = interruptHandler;
  5025     0B66  0871               	movf	EUSART_SetFramingErrorHandler@interruptHandler+1,w
  5026     0B67  0021               	movlb	1	; select bank1
  5027     0B68  00D8               	movwf	(_EUSART_FramingErrorHandler+1)^(0+128)
  5028     0B69  0870               	movf	EUSART_SetFramingErrorHandler@interruptHandler,w
  5029     0B6A  00D7               	movwf	_EUSART_FramingErrorHandler^(0+128)
  5030     0B6B                     l141:
  5031     0B6B  0008               	return
  5032     0B6C                     __end_of_EUSART_SetFramingErrorHandler:
  5033                           
  5034                           	psect	text23
  5035     0B60                     __ptext23:	
  5036 ;; *************** function _EUSART_SetErrorHandler *****************
  5037 ;; Defined at:
  5038 ;;		line 165 in file "mcc_generated_files/eusart.c"
  5039 ;; Parameters:    Size  Location     Type
  5040 ;;  interruptHan    2    0[COMMON] PTR FTN()void 
  5041 ;;		 -> EUSART_DefaultErrorHandler(1), 
  5042 ;; Auto vars:     Size  Location     Type
  5043 ;;		None
  5044 ;; Return value:  Size  Location     Type
  5045 ;;                  1    wreg      void 
  5046 ;; Registers used:
  5047 ;;		wreg
  5048 ;; Tracked objects:
  5049 ;;		On entry : 0/0
  5050 ;;		On exit  : 0/0
  5051 ;;		Unchanged: 0/0
  5052 ;; Data sizes:     COMMON   BANK0   BANK1   BANK2   BANK3   BANK4
  5053 ;;      Params:         2       0       0       0       0       0
  5054 ;;      Locals:         0       0       0       0       0       0
  5055 ;;      Temps:          0       0       0       0       0       0
  5056 ;;      Totals:         2       0       0       0       0       0
  5057 ;;Total ram usage:        2 bytes
  5058 ;; Hardware stack levels used: 1
  5059 ;; Hardware stack levels required when called: 3
  5060 ;; This function calls:
  5061 ;;		Nothing
  5062 ;; This function is called by:
  5063 ;;		_EUSART_Initialize
  5064 ;; This function uses a non-reentrant model
  5065 ;;
  5066                           
  5067     0B60                     _EUSART_SetErrorHandler:	
  5068                           ;psect for function _EUSART_SetErrorHandler
  5069                           
  5070     0B60                     l2205:	
  5071                           ;incstack = 0
  5072                           ; Regs used in _EUSART_SetErrorHandler: [wreg]
  5073                           
  5074                           
  5075                           ;mcc_generated_files/eusart.c: 166:     EUSART_ErrorHandler = interruptHandler;
  5076     0B60  0871               	movf	EUSART_SetErrorHandler@interruptHandler+1,w
  5077     0B61  0021               	movlb	1	; select bank1
  5078     0B62  00D4               	movwf	(_EUSART_ErrorHandler+1)^(0+128)
  5079     0B63  0870               	movf	EUSART_SetErrorHandler@interruptHandler,w
  5080     0B64  00D3               	movwf	_EUSART_ErrorHandler^(0+128)
  5081     0B65                     l147:
  5082     0B65  0008               	return
  5083     0B66                     __end_of_EUSART_SetErrorHandler:
  5084                           
  5085                           	psect	text24
  5086     0BDD                     __ptext24:	
  5087 ;; *************** function _ADC_Initialize *****************
  5088 ;; Defined at:
  5089 ;;		line 67 in file "mcc_generated_files/adc.c"
  5090 ;; Parameters:    Size  Location     Type
  5091 ;;		None
  5092 ;; Auto vars:     Size  Location     Type
  5093 ;;		None
  5094 ;; Return value:  Size  Location     Type
  5095 ;;                  1    wreg      void 
  5096 ;; Registers used:
  5097 ;;		wreg, status,2, status,0, pclath, cstack
  5098 ;; Tracked objects:
  5099 ;;		On entry : 0/0
  5100 ;;		On exit  : 0/0
  5101 ;;		Unchanged: 0/0
  5102 ;; Data sizes:     COMMON   BANK0   BANK1   BANK2   BANK3   BANK4
  5103 ;;      Params:         0       0       0       0       0       0
  5104 ;;      Locals:         0       0       0       0       0       0
  5105 ;;      Temps:          0       0       0       0       0       0
  5106 ;;      Totals:         0       0       0       0       0       0
  5107 ;;Total ram usage:        0 bytes
  5108 ;; Hardware stack levels used: 1
  5109 ;; Hardware stack levels required when called: 4
  5110 ;; This function calls:
  5111 ;;		_ADC_SetInterruptHandler
  5112 ;; This function is called by:
  5113 ;;		_SYSTEM_Initialize
  5114 ;; This function uses a non-reentrant model
  5115 ;;
  5116                           
  5117     0BDD                     _ADC_Initialize:	
  5118                           ;psect for function _ADC_Initialize
  5119                           
  5120     0BDD                     l2441:	
  5121                           ;incstack = 0
  5122                           ; Regs used in _ADC_Initialize: [wreg+status,2+status,0+pclath+cstack]
  5123                           
  5124                           
  5125                           ;mcc_generated_files/adc.c: 72:     ADCON1 = 0x93;
  5126     0BDD  3093               	movlw	147
  5127     0BDE  0021               	movlb	1	; select bank1
  5128     0BDF  009E               	movwf	30	;volatile
  5129     0BE0                     l2443:
  5130                           
  5131                           ;mcc_generated_files/adc.c: 75:     ADRESL = 0x00;
  5132     0BE0  019B               	clrf	27	;volatile
  5133     0BE1                     l2445:
  5134                           
  5135                           ;mcc_generated_files/adc.c: 78:     ADRESH = 0x00;
  5136     0BE1  019C               	clrf	28	;volatile
  5137                           
  5138                           ;mcc_generated_files/adc.c: 81:     ADCON0 = 0x01;
  5139     0BE2  3001               	movlw	1
  5140     0BE3  009D               	movwf	29	;volatile
  5141     0BE4                     l2447:
  5142                           
  5143                           ;mcc_generated_files/adc.c: 84:     PIE1bits.ADIE = 1;
  5144     0BE4  1711               	bsf	17,6	;volatile
  5145     0BE5                     l2449:
  5146                           
  5147                           ;mcc_generated_files/adc.c: 87:     ADC_SetInterruptHandler(ADC_DefaultInterruptHandler)
      +                          ;
  5148     0BE5  3003               	movlw	low _ADC_DefaultInterruptHandler
  5149     0BE6  00F0               	movwf	ADC_SetInterruptHandler@InterruptHandler
  5150     0BE7  3000               	movlw	high _ADC_DefaultInterruptHandler
  5151     0BE8  00F1               	movwf	ADC_SetInterruptHandler@InterruptHandler+1
  5152     0BE9  318B  235A  318B   	fcall	_ADC_SetInterruptHandler
  5153     0BEC                     l172:
  5154     0BEC  0008               	return
  5155     0BED                     __end_of_ADC_Initialize:
  5156                           
  5157                           	psect	text25
  5158     0B5A                     __ptext25:	
  5159 ;; *************** function _ADC_SetInterruptHandler *****************
  5160 ;; Defined at:
  5161 ;;		line 156 in file "mcc_generated_files/adc.c"
  5162 ;; Parameters:    Size  Location     Type
  5163 ;;  InterruptHan    2    0[COMMON] PTR FTN()void 
  5164 ;;		 -> miatencionadc(1), ADC_DefaultInterruptHandler(1), 
  5165 ;; Auto vars:     Size  Location     Type
  5166 ;;		None
  5167 ;; Return value:  Size  Location     Type
  5168 ;;                  1    wreg      void 
  5169 ;; Registers used:
  5170 ;;		wreg
  5171 ;; Tracked objects:
  5172 ;;		On entry : 0/0
  5173 ;;		On exit  : 0/0
  5174 ;;		Unchanged: 0/0
  5175 ;; Data sizes:     COMMON   BANK0   BANK1   BANK2   BANK3   BANK4
  5176 ;;      Params:         2       0       0       0       0       0
  5177 ;;      Locals:         0       0       0       0       0       0
  5178 ;;      Temps:          0       0       0       0       0       0
  5179 ;;      Totals:         2       0       0       0       0       0
  5180 ;;Total ram usage:        2 bytes
  5181 ;; Hardware stack levels used: 1
  5182 ;; Hardware stack levels required when called: 3
  5183 ;; This function calls:
  5184 ;;		Nothing
  5185 ;; This function is called by:
  5186 ;;		_ADC_Initialize
  5187 ;;		_main
  5188 ;; This function uses a non-reentrant model
  5189 ;;
  5190                           
  5191     0B5A                     _ADC_SetInterruptHandler:	
  5192                           ;psect for function _ADC_SetInterruptHandler
  5193                           
  5194     0B5A                     l2207:	
  5195                           ;incstack = 0
  5196                           ; Regs used in _ADC_SetInterruptHandler: [wreg]
  5197                           
  5198                           
  5199                           ;mcc_generated_files/adc.c: 157:     ADC_InterruptHandler = InterruptHandler;
  5200     0B5A  0871               	movf	ADC_SetInterruptHandler@InterruptHandler+1,w
  5201     0B5B  0021               	movlb	1	; select bank1
  5202     0B5C  00D2               	movwf	(_ADC_InterruptHandler+1)^(0+128)
  5203     0B5D  0870               	movf	ADC_SetInterruptHandler@InterruptHandler,w
  5204     0B5E  00D1               	movwf	_ADC_InterruptHandler^(0+128)
  5205     0B5F                     l200:
  5206     0B5F  0008               	return
  5207     0B60                     __end_of_ADC_SetInterruptHandler:
  5208                           
  5209                           	psect	text26
  5210     0BCE                     __ptext26:	
  5211 ;; *************** function _EUSART_is_tx_ready *****************
  5212 ;; Defined at:
  5213 ;;		line 94 in file "mcc_generated_files/eusart.c"
  5214 ;; Parameters:    Size  Location     Type
  5215 ;;		None
  5216 ;; Auto vars:     Size  Location     Type
  5217 ;;		None
  5218 ;; Return value:  Size  Location     Type
  5219 ;;                  1    wreg      _Bool 
  5220 ;; Registers used:
  5221 ;;		wreg, status,2
  5222 ;; Tracked objects:
  5223 ;;		On entry : 0/0
  5224 ;;		On exit  : 0/0
  5225 ;;		Unchanged: 0/0
  5226 ;; Data sizes:     COMMON   BANK0   BANK1   BANK2   BANK3   BANK4
  5227 ;;      Params:         0       0       0       0       0       0
  5228 ;;      Locals:         1       0       0       0       0       0
  5229 ;;      Temps:          0       0       0       0       0       0
  5230 ;;      Totals:         1       0       0       0       0       0
  5231 ;;Total ram usage:        1 bytes
  5232 ;; Hardware stack levels used: 1
  5233 ;; Hardware stack levels required when called: 3
  5234 ;; This function calls:
  5235 ;;		Nothing
  5236 ;; This function is called by:
  5237 ;;		_main
  5238 ;; This function uses a non-reentrant model
  5239 ;;
  5240                           
  5241     0BCE                     _EUSART_is_tx_ready:	
  5242                           ;psect for function _EUSART_is_tx_ready
  5243                           
  5244     0BCE                     l2861:	
  5245                           ;incstack = 0
  5246                           ; Regs used in _EUSART_is_tx_ready: [wreg+status,2]
  5247                           
  5248                           
  5249                           ;mcc_generated_files/eusart.c: 96:     return (_Bool)(PIR1bits.TXIF && TXSTAbits.TXEN);
  5250     0BCE  01F0               	clrf	_EUSART_is_tx_ready$254
  5251     0BCF                     l2863:
  5252     0BCF  0020               	movlb	0	; select bank0
  5253     0BD0  1E11               	btfss	17,4	;volatile
  5254     0BD1  2BD3               	goto	u2801
  5255     0BD2  2BD4               	goto	u2800
  5256     0BD3                     u2801:
  5257     0BD3  2BDB               	goto	l2869
  5258     0BD4                     u2800:
  5259     0BD4                     l2865:
  5260     0BD4  0023               	movlb	3	; select bank3
  5261     0BD5  1E9E               	btfss	30,5	;volatile
  5262     0BD6  2BD8               	goto	u2811
  5263     0BD7  2BD9               	goto	u2810
  5264     0BD8                     u2811:
  5265     0BD8  2BDB               	goto	l2869
  5266     0BD9                     u2810:
  5267     0BD9                     l2867:
  5268     0BD9  01F0               	clrf	_EUSART_is_tx_ready$254
  5269     0BDA  0AF0               	incf	_EUSART_is_tx_ready$254,f
  5270     0BDB                     l2869:
  5271     0BDB  0870               	movf	_EUSART_is_tx_ready$254,w
  5272     0BDC                     l107:
  5273     0BDC  0008               	return
  5274     0BDD                     __end_of_EUSART_is_tx_ready:
  5275                           
  5276                           	psect	text27
  5277     0B41                     __ptext27:	
  5278 ;; *************** function _ADC_StartConversion *****************
  5279 ;; Defined at:
  5280 ;;		line 98 in file "mcc_generated_files/adc.c"
  5281 ;; Parameters:    Size  Location     Type
  5282 ;;		None
  5283 ;; Auto vars:     Size  Location     Type
  5284 ;;		None
  5285 ;; Return value:  Size  Location     Type
  5286 ;;                  1    wreg      void 
  5287 ;; Registers used:
  5288 ;;		None
  5289 ;; Tracked objects:
  5290 ;;		On entry : 0/0
  5291 ;;		On exit  : 0/0
  5292 ;;		Unchanged: 0/0
  5293 ;; Data sizes:     COMMON   BANK0   BANK1   BANK2   BANK3   BANK4
  5294 ;;      Params:         0       0       0       0       0       0
  5295 ;;      Locals:         0       0       0       0       0       0
  5296 ;;      Temps:          0       0       0       0       0       0
  5297 ;;      Totals:         0       0       0       0       0       0
  5298 ;;Total ram usage:        0 bytes
  5299 ;; Hardware stack levels used: 1
  5300 ;; Hardware stack levels required when called: 3
  5301 ;; This function calls:
  5302 ;;		Nothing
  5303 ;; This function is called by:
  5304 ;;		_main
  5305 ;; This function uses a non-reentrant model
  5306 ;;
  5307                           
  5308     0B41                     _ADC_StartConversion:	
  5309                           ;psect for function _ADC_StartConversion
  5310                           
  5311     0B41                     l2873:	
  5312                           ;incstack = 0
  5313                           ; Regs used in _ADC_StartConversion: []
  5314                           
  5315                           
  5316                           ;mcc_generated_files/adc.c: 101:     ADCON0bits.GO_nDONE = 1;
  5317     0B41  0021               	movlb	1	; select bank1
  5318     0B42  149D               	bsf	29,1	;volatile
  5319     0B43                     l178:
  5320     0B43  0008               	return
  5321     0B44                     __end_of_ADC_StartConversion:
  5322                           
  5323                           	psect	text28
  5324     0B78                     __ptext28:	
  5325 ;; *************** function _ADC_IsConversionDone *****************
  5326 ;; Defined at:
  5327 ;;		line 105 in file "mcc_generated_files/adc.c"
  5328 ;; Parameters:    Size  Location     Type
  5329 ;;		None
  5330 ;; Auto vars:     Size  Location     Type
  5331 ;;		None
  5332 ;; Return value:  Size  Location     Type
  5333 ;;                  1    wreg      _Bool 
  5334 ;; Registers used:
  5335 ;;		wreg, status,0
  5336 ;; Tracked objects:
  5337 ;;		On entry : 0/0
  5338 ;;		On exit  : 0/0
  5339 ;;		Unchanged: 0/0
  5340 ;; Data sizes:     COMMON   BANK0   BANK1   BANK2   BANK3   BANK4
  5341 ;;      Params:         0       0       0       0       0       0
  5342 ;;      Locals:         0       0       0       0       0       0
  5343 ;;      Temps:          0       0       0       0       0       0
  5344 ;;      Totals:         0       0       0       0       0       0
  5345 ;;Total ram usage:        0 bytes
  5346 ;; Hardware stack levels used: 1
  5347 ;; Hardware stack levels required when called: 3
  5348 ;; This function calls:
  5349 ;;		Nothing
  5350 ;; This function is called by:
  5351 ;;		_main
  5352 ;; This function uses a non-reentrant model
  5353 ;;
  5354                           
  5355     0B78                     _ADC_IsConversionDone:	
  5356                           ;psect for function _ADC_IsConversionDone
  5357                           
  5358     0B78                     l2875:	
  5359                           ;incstack = 0
  5360                           ; Regs used in _ADC_IsConversionDone: [wreg+status,0]
  5361                           
  5362                           
  5363                           ;mcc_generated_files/adc.c: 108:    return ((_Bool)(!ADCON0bits.GO_nDONE));
  5364     0B78  1003               	clrc
  5365     0B79  0021               	movlb	1	; select bank1
  5366     0B7A  1C9D               	btfss	29,1	;volatile
  5367     0B7B  1403               	setc
  5368     0B7C  3000               	movlw	0
  5369     0B7D  3D09               	addwfc	9,w
  5370     0B7E                     l181:
  5371     0B7E  0008               	return
  5372     0B7F                     __end_of_ADC_IsConversionDone:
  5373                           
  5374                           	psect	text29
  5375     0B54                     __ptext29:	
  5376 ;; *************** function _ADC_GetConversionResult *****************
  5377 ;; Defined at:
  5378 ;;		line 111 in file "mcc_generated_files/adc.c"
  5379 ;; Parameters:    Size  Location     Type
  5380 ;;		None
  5381 ;; Auto vars:     Size  Location     Type
  5382 ;;		None
  5383 ;; Return value:  Size  Location     Type
  5384 ;;                  2    0[COMMON] unsigned short 
  5385 ;; Registers used:
  5386 ;;		wreg
  5387 ;; Tracked objects:
  5388 ;;		On entry : 0/0
  5389 ;;		On exit  : 0/0
  5390 ;;		Unchanged: 0/0
  5391 ;; Data sizes:     COMMON   BANK0   BANK1   BANK2   BANK3   BANK4
  5392 ;;      Params:         2       0       0       0       0       0
  5393 ;;      Locals:         0       0       0       0       0       0
  5394 ;;      Temps:          0       0       0       0       0       0
  5395 ;;      Totals:         2       0       0       0       0       0
  5396 ;;Total ram usage:        2 bytes
  5397 ;; Hardware stack levels used: 1
  5398 ;; Hardware stack levels required when called: 3
  5399 ;; This function calls:
  5400 ;;		Nothing
  5401 ;; This function is called by:
  5402 ;;		_main
  5403 ;; This function uses a non-reentrant model
  5404 ;;
  5405                           
  5406     0B54                     _ADC_GetConversionResult:	
  5407                           ;psect for function _ADC_GetConversionResult
  5408                           
  5409     0B54                     l2879:	
  5410                           ;incstack = 0
  5411                           ; Regs used in _ADC_GetConversionResult: [wreg]
  5412                           
  5413                           
  5414                           ;mcc_generated_files/adc.c: 114:     return ((adc_result_t)((ADRESH << 8) + ADRESL));
  5415     0B54  0021               	movlb	1	; select bank1
  5416     0B55  081C               	movf	28,w	;volatile
  5417     0B56  00F1               	movwf	?_ADC_GetConversionResult+1
  5418     0B57  081B               	movf	27,w	;volatile
  5419     0B58  00F0               	movwf	?_ADC_GetConversionResult
  5420     0B59                     l184:
  5421     0B59  0008               	return
  5422     0B5A                     __end_of_ADC_GetConversionResult:
  5423                           
  5424                           	psect	text30
  5425     062B                     __ptext30:	
  5426 ;; *************** function _ADC2Display *****************
  5427 ;; Defined at:
  5428 ;;		line 30 in file "nuestrodisplay.c"
  5429 ;; Parameters:    Size  Location     Type
  5430 ;;  dis             1    wreg     PTR struct Ds_Display
  5431 ;;		 -> main@miDisplay(5), 
  5432 ;;  adcVal          2   78[BANK0 ] unsigned short 
  5433 ;; Auto vars:     Size  Location     Type
  5434 ;;  dis             1   13[BANK1 ] PTR struct Ds_Display
  5435 ;;		 -> main@miDisplay(5), 
  5436 ;;  voltios         4    9[BANK1 ] float 
  5437 ;;  aux             1    8[BANK1 ] unsigned char 
  5438 ;; Return value:  Size  Location     Type
  5439 ;;                  1    wreg      void 
  5440 ;; Registers used:
  5441 ;;		wreg, fsr0l, fsr0h, fsr1l, fsr1h, status,2, status,0, pclath, cstack
  5442 ;; Tracked objects:
  5443 ;;		On entry : 0/0
  5444 ;;		On exit  : 0/0
  5445 ;;		Unchanged: 0/0
  5446 ;; Data sizes:     COMMON   BANK0   BANK1   BANK2   BANK3   BANK4
  5447 ;;      Params:         0       2       0       0       0       0
  5448 ;;      Locals:         0       0      10       0       0       0
  5449 ;;      Temps:          0       0       4       0       0       0
  5450 ;;      Totals:         0       2      14       0       0       0
  5451 ;;Total ram usage:       16 bytes
  5452 ;; Hardware stack levels used: 1
  5453 ;; Hardware stack levels required when called: 5
  5454 ;; This function calls:
  5455 ;;		___fldiv
  5456 ;;		___flmul
  5457 ;;		___flsub
  5458 ;;		___fltol
  5459 ;;		___xxtofl
  5460 ;; This function is called by:
  5461 ;;		_main
  5462 ;; This function uses a non-reentrant model
  5463 ;;
  5464                           
  5465     062B                     _ADC2Display:	
  5466                           ;psect for function _ADC2Display
  5467                           
  5468                           
  5469                           ;incstack = 0
  5470                           ; Regs used in _ADC2Display: [wreg-fsr1h+status,2+status,0+pclath+cstack]
  5471                           ;ADC2Display@dis stored from wreg
  5472     062B  0021               	movlb	1	; select bank1
  5473     062C  00AD               	movwf	ADC2Display@dis^(0+128)
  5474     062D                     l2975:
  5475                           
  5476                           ;nuestrodisplay.c: 31:     char aux;;nuestrodisplay.c: 32:     float voltios = ((float)a
      +                          dcVal*10.0f)/1023.0f;
  5477     062D  3044               	movlw	68
  5478     062E  0020               	movlb	0	; select bank0
  5479     062F  00CD               	movwf	___fldiv@a+3
  5480     0630  307F               	movlw	127
  5481     0631  00CC               	movwf	___fldiv@a+2
  5482     0632  30C0               	movlw	192
  5483     0633  00CB               	movwf	___fldiv@a+1
  5484     0634  3000               	movlw	0
  5485     0635  00CA               	movwf	___fldiv@a
  5486     0636  3041               	movlw	65
  5487     0637  00B3               	movwf	___flmul@b+3
  5488     0638  3020               	movlw	32
  5489     0639  00B2               	movwf	___flmul@b+2
  5490     063A  3000               	movlw	0
  5491     063B  00B1               	movwf	___flmul@b+1
  5492     063C  3000               	movlw	0
  5493     063D  00B0               	movwf	___flmul@b
  5494     063E  086E               	movf	ADC2Display@adcVal,w
  5495     063F  00F0               	movwf	___xxtofl@val
  5496     0640  086F               	movf	ADC2Display@adcVal+1,w
  5497     0641  00F1               	movwf	___xxtofl@val+1
  5498     0642  01F2               	clrf	___xxtofl@val+2
  5499     0643  01F3               	clrf	___xxtofl@val+3
  5500     0644  3000               	movlw	0
  5501     0645  318F  2756  3186   	fcall	___xxtofl
  5502     0648  0873               	movf	?___xxtofl+3,w
  5503     0649  0020               	movlb	0	; select bank0
  5504     064A  00B7               	movwf	___flmul@a+3
  5505     064B  0872               	movf	?___xxtofl+2,w
  5506     064C  00B6               	movwf	___flmul@a+2
  5507     064D  0871               	movf	?___xxtofl+1,w
  5508     064E  00B5               	movwf	___flmul@a+1
  5509     064F  0870               	movf	?___xxtofl,w
  5510     0650  00B4               	movwf	___flmul@a
  5511     0651  3180  203A  3186   	fcall	___flmul
  5512     0654  0020               	movlb	0	; select bank0
  5513     0655  0833               	movf	?___flmul+3,w
  5514     0656  00D1               	movwf	___fldiv@b+3
  5515     0657  0832               	movf	?___flmul+2,w
  5516     0658  00D0               	movwf	___fldiv@b+2
  5517     0659  0831               	movf	?___flmul+1,w
  5518     065A  00CF               	movwf	___fldiv@b+1
  5519     065B  0830               	movf	?___flmul,w
  5520     065C  00CE               	movwf	___fldiv@b
  5521     065D  3184  2481  3186   	fcall	___fldiv
  5522     0660  0020               	movlb	0	; select bank0
  5523     0661  084D               	movf	?___fldiv+3,w
  5524     0662  0021               	movlb	1	; select bank1
  5525     0663  00AC               	movwf	(ADC2Display@voltios+3)^(0+128)
  5526     0664  0020               	movlb	0	; select bank0
  5527     0665  084C               	movf	?___fldiv+2,w
  5528     0666  0021               	movlb	1	; select bank1
  5529     0667  00AB               	movwf	(ADC2Display@voltios+2)^(0+128)
  5530     0668  0020               	movlb	0	; select bank0
  5531     0669  084B               	movf	?___fldiv+1,w
  5532     066A  0021               	movlb	1	; select bank1
  5533     066B  00AA               	movwf	(ADC2Display@voltios+1)^(0+128)
  5534     066C  0020               	movlb	0	; select bank0
  5535     066D  084A               	movf	?___fldiv,w
  5536     066E  0021               	movlb	1	; select bank1
  5537     066F  00A9               	movwf	ADC2Display@voltios^(0+128)
  5538     0670                     l2977:
  5539                           
  5540                           ;nuestrodisplay.c: 33:     dis->Digito1 = (char)voltios;
  5541     0670  082D               	movf	ADC2Display@dis^(0+128),w
  5542     0671  0086               	movwf	6
  5543     0672  0187               	clrf	7
  5544     0673  082C               	movf	(ADC2Display@voltios+3)^(0+128),w
  5545     0674  0020               	movlb	0	; select bank0
  5546     0675  00E7               	movwf	___fltol@f1+3
  5547     0676  0021               	movlb	1	; select bank1
  5548     0677  082B               	movf	(ADC2Display@voltios+2)^(0+128),w
  5549     0678  0020               	movlb	0	; select bank0
  5550     0679  00E6               	movwf	___fltol@f1+2
  5551     067A  0021               	movlb	1	; select bank1
  5552     067B  082A               	movf	(ADC2Display@voltios+1)^(0+128),w
  5553     067C  0020               	movlb	0	; select bank0
  5554     067D  00E5               	movwf	___fltol@f1+1
  5555     067E  0021               	movlb	1	; select bank1
  5556     067F  0829               	movf	ADC2Display@voltios^(0+128),w
  5557     0680  0020               	movlb	0	; select bank0
  5558     0681  00E4               	movwf	___fltol@f1
  5559     0682  318D  255D  3186   	fcall	___fltol
  5560     0685  0020               	movlb	0	; select bank0
  5561     0686  0864               	movf	?___fltol,w
  5562     0687  0081               	movwf	1
  5563     0688                     l2979:
  5564                           
  5565                           ;nuestrodisplay.c: 34:     dis->Digito2 = (char)((voltios-(dis->Digito1))*10.0f);
  5566     0688  0021               	movlb	1	; select bank1
  5567     0689  0A2D               	incf	ADC2Display@dis^(0+128),w
  5568     068A  0086               	movwf	6
  5569     068B  0187               	clrf	7
  5570     068C  082C               	movf	(ADC2Display@voltios+3)^(0+128),w
  5571     068D  0020               	movlb	0	; select bank0
  5572     068E  00AF               	movwf	___flsub@b+3
  5573     068F  0021               	movlb	1	; select bank1
  5574     0690  082B               	movf	(ADC2Display@voltios+2)^(0+128),w
  5575     0691  0020               	movlb	0	; select bank0
  5576     0692  00AE               	movwf	___flsub@b+2
  5577     0693  0021               	movlb	1	; select bank1
  5578     0694  082A               	movf	(ADC2Display@voltios+1)^(0+128),w
  5579     0695  0020               	movlb	0	; select bank0
  5580     0696  00AD               	movwf	___flsub@b+1
  5581     0697  0021               	movlb	1	; select bank1
  5582     0698  0829               	movf	ADC2Display@voltios^(0+128),w
  5583     0699  0020               	movlb	0	; select bank0
  5584     069A  00AC               	movwf	___flsub@b
  5585     069B  0021               	movlb	1	; select bank1
  5586     069C  082D               	movf	ADC2Display@dis^(0+128),w
  5587     069D  0084               	movwf	4
  5588     069E  0185               	clrf	5
  5589     069F  0800               	movf	0,w
  5590     06A0  00A0               	movwf	??_ADC2Display^(0+128)
  5591     06A1  01A1               	clrf	(??_ADC2Display^(0+128)+1)
  5592     06A2  01A2               	clrf	(??_ADC2Display^(0+128)+2)
  5593     06A3  01A3               	clrf	(??_ADC2Display^(0+128)+3)
  5594     06A4  0823               	movf	(??_ADC2Display+3)^(0+128),w
  5595     06A5  00F3               	movwf	___xxtofl@val+3
  5596     06A6  0822               	movf	(??_ADC2Display+2)^(0+128),w
  5597     06A7  00F2               	movwf	___xxtofl@val+2
  5598     06A8  0821               	movf	(??_ADC2Display+1)^(0+128),w
  5599     06A9  00F1               	movwf	___xxtofl@val+1
  5600     06AA  0820               	movf	??_ADC2Display^(0+128),w
  5601     06AB  00F0               	movwf	___xxtofl@val
  5602     06AC  3001               	movlw	1
  5603     06AD  318F  2756  3186   	fcall	___xxtofl
  5604     06B0  0873               	movf	?___xxtofl+3,w
  5605     06B1  0020               	movlb	0	; select bank0
  5606     06B2  00AB               	movwf	___flsub@a+3
  5607     06B3  0872               	movf	?___xxtofl+2,w
  5608     06B4  00AA               	movwf	___flsub@a+2
  5609     06B5  0871               	movf	?___xxtofl+1,w
  5610     06B6  00A9               	movwf	___flsub@a+1
  5611     06B7  0870               	movf	?___xxtofl,w
  5612     06B8  00A8               	movwf	___flsub@a
  5613     06B9  318C  2443  3186   	fcall	___flsub
  5614     06BC  0020               	movlb	0	; select bank0
  5615     06BD  082B               	movf	?___flsub+3,w
  5616     06BE  00B7               	movwf	___flmul@a+3
  5617     06BF  082A               	movf	?___flsub+2,w
  5618     06C0  00B6               	movwf	___flmul@a+2
  5619     06C1  0829               	movf	?___flsub+1,w
  5620     06C2  00B5               	movwf	___flmul@a+1
  5621     06C3  0828               	movf	?___flsub,w
  5622     06C4  00B4               	movwf	___flmul@a
  5623     06C5  3041               	movlw	65
  5624     06C6  00B3               	movwf	___flmul@b+3
  5625     06C7  3020               	movlw	32
  5626     06C8  00B2               	movwf	___flmul@b+2
  5627     06C9  3000               	movlw	0
  5628     06CA  00B1               	movwf	___flmul@b+1
  5629     06CB  3000               	movlw	0
  5630     06CC  00B0               	movwf	___flmul@b
  5631     06CD  3180  203A  3186   	fcall	___flmul
  5632     06D0  0020               	movlb	0	; select bank0
  5633     06D1  0833               	movf	?___flmul+3,w
  5634     06D2  00E7               	movwf	___fltol@f1+3
  5635     06D3  0832               	movf	?___flmul+2,w
  5636     06D4  00E6               	movwf	___fltol@f1+2
  5637     06D5  0831               	movf	?___flmul+1,w
  5638     06D6  00E5               	movwf	___fltol@f1+1
  5639     06D7  0830               	movf	?___flmul,w
  5640     06D8  00E4               	movwf	___fltol@f1
  5641     06D9  318D  255D  3186   	fcall	___fltol
  5642     06DC  0020               	movlb	0	; select bank0
  5643     06DD  0864               	movf	?___fltol,w
  5644     06DE  0081               	movwf	1
  5645     06DF                     l2981:
  5646                           
  5647                           ;nuestrodisplay.c: 35:     aux = dis->Digito2;
  5648     06DF  0021               	movlb	1	; select bank1
  5649     06E0  082D               	movf	ADC2Display@dis^(0+128),w
  5650     06E1  0086               	movwf	6
  5651     06E2  0187               	clrf	7
  5652     06E3  3F41               	moviw [1]fsr1
  5653     06E4  00A8               	movwf	ADC2Display@aux^(0+128)
  5654     06E5                     l2983:
  5655                           
  5656                           ;nuestrodisplay.c: 36:     dis->Digito3 = (char)(((voltios-(float)(dis->Digito1)-((float
      +                          )aux/10.0f)))*100.0f);
  5657     06E5  082C               	movf	(ADC2Display@voltios+3)^(0+128),w
  5658     06E6  0020               	movlb	0	; select bank0
  5659     06E7  00AF               	movwf	___flsub@b+3
  5660     06E8  0021               	movlb	1	; select bank1
  5661     06E9  082B               	movf	(ADC2Display@voltios+2)^(0+128),w
  5662     06EA  0020               	movlb	0	; select bank0
  5663     06EB  00AE               	movwf	___flsub@b+2
  5664     06EC  0021               	movlb	1	; select bank1
  5665     06ED  082A               	movf	(ADC2Display@voltios+1)^(0+128),w
  5666     06EE  0020               	movlb	0	; select bank0
  5667     06EF  00AD               	movwf	___flsub@b+1
  5668     06F0  0021               	movlb	1	; select bank1
  5669     06F1  0829               	movf	ADC2Display@voltios^(0+128),w
  5670     06F2  0020               	movlb	0	; select bank0
  5671     06F3  00AC               	movwf	___flsub@b
  5672     06F4  0021               	movlb	1	; select bank1
  5673     06F5  082D               	movf	ADC2Display@dis^(0+128),w
  5674     06F6  0086               	movwf	6
  5675     06F7  0187               	clrf	7
  5676     06F8  0801               	movf	1,w
  5677     06F9  00A0               	movwf	??_ADC2Display^(0+128)
  5678     06FA  01A1               	clrf	(??_ADC2Display^(0+128)+1)
  5679     06FB  01A2               	clrf	(??_ADC2Display^(0+128)+2)
  5680     06FC  01A3               	clrf	(??_ADC2Display^(0+128)+3)
  5681     06FD  0823               	movf	(??_ADC2Display+3)^(0+128),w
  5682     06FE  00F3               	movwf	___xxtofl@val+3
  5683     06FF  0822               	movf	(??_ADC2Display+2)^(0+128),w
  5684     0700  00F2               	movwf	___xxtofl@val+2
  5685     0701  0821               	movf	(??_ADC2Display+1)^(0+128),w
  5686     0702  00F1               	movwf	___xxtofl@val+1
  5687     0703  0820               	movf	??_ADC2Display^(0+128),w
  5688     0704  00F0               	movwf	___xxtofl@val
  5689     0705  3000               	movlw	0
  5690     0706  318F  2756  3186   	fcall	___xxtofl
  5691     0709  0873               	movf	?___xxtofl+3,w
  5692     070A  0020               	movlb	0	; select bank0
  5693     070B  00AB               	movwf	___flsub@a+3
  5694     070C  0872               	movf	?___xxtofl+2,w
  5695     070D  00AA               	movwf	___flsub@a+2
  5696     070E  0871               	movf	?___xxtofl+1,w
  5697     070F  00A9               	movwf	___flsub@a+1
  5698     0710  0870               	movf	?___xxtofl,w
  5699     0711  00A8               	movwf	___flsub@a
  5700     0712  318C  2443  3186   	fcall	___flsub
  5701     0715  0020               	movlb	0	; select bank0
  5702     0716  082B               	movf	?___flsub+3,w
  5703     0717  0021               	movlb	1	; select bank1
  5704     0718  00A7               	movwf	(_ADC2Display$1620+3)^(0+128)
  5705     0719  0020               	movlb	0	; select bank0
  5706     071A  082A               	movf	?___flsub+2,w
  5707     071B  0021               	movlb	1	; select bank1
  5708     071C  00A6               	movwf	(_ADC2Display$1620+2)^(0+128)
  5709     071D  0020               	movlb	0	; select bank0
  5710     071E  0829               	movf	?___flsub+1,w
  5711     071F  0021               	movlb	1	; select bank1
  5712     0720  00A5               	movwf	(_ADC2Display$1620+1)^(0+128)
  5713     0721  0020               	movlb	0	; select bank0
  5714     0722  0828               	movf	?___flsub,w
  5715     0723  0021               	movlb	1	; select bank1
  5716     0724  00A4               	movwf	_ADC2Display$1620^(0+128)
  5717     0725                     l2985:
  5718                           
  5719                           ;nuestrodisplay.c: 36:     dis->Digito3 = (char)(((voltios-(float)(dis->Digito1)-((float
      +                          )aux/10.0f)))*100.0f);
  5720     0725  082D               	movf	ADC2Display@dis^(0+128),w
  5721     0726  3E02               	addlw	2
  5722     0727  0086               	movwf	6
  5723     0728  0187               	clrf	7
  5724     0729  0827               	movf	(_ADC2Display$1620+3)^(0+128),w
  5725     072A  0020               	movlb	0	; select bank0
  5726     072B  00AF               	movwf	___flsub@b+3
  5727     072C  0021               	movlb	1	; select bank1
  5728     072D  0826               	movf	(_ADC2Display$1620+2)^(0+128),w
  5729     072E  0020               	movlb	0	; select bank0
  5730     072F  00AE               	movwf	___flsub@b+2
  5731     0730  0021               	movlb	1	; select bank1
  5732     0731  0825               	movf	(_ADC2Display$1620+1)^(0+128),w
  5733     0732  0020               	movlb	0	; select bank0
  5734     0733  00AD               	movwf	___flsub@b+1
  5735     0734  0021               	movlb	1	; select bank1
  5736     0735  0824               	movf	_ADC2Display$1620^(0+128),w
  5737     0736  0020               	movlb	0	; select bank0
  5738     0737  00AC               	movwf	___flsub@b
  5739     0738  0021               	movlb	1	; select bank1
  5740     0739  0828               	movf	ADC2Display@aux^(0+128),w
  5741     073A  00A0               	movwf	??_ADC2Display^(0+128)
  5742     073B  01A1               	clrf	(??_ADC2Display^(0+128)+1)
  5743     073C  01A2               	clrf	(??_ADC2Display^(0+128)+2)
  5744     073D  01A3               	clrf	(??_ADC2Display^(0+128)+3)
  5745     073E  0823               	movf	(??_ADC2Display+3)^(0+128),w
  5746     073F  00F3               	movwf	___xxtofl@val+3
  5747     0740  0822               	movf	(??_ADC2Display+2)^(0+128),w
  5748     0741  00F2               	movwf	___xxtofl@val+2
  5749     0742  0821               	movf	(??_ADC2Display+1)^(0+128),w
  5750     0743  00F1               	movwf	___xxtofl@val+1
  5751     0744  0820               	movf	??_ADC2Display^(0+128),w
  5752     0745  00F0               	movwf	___xxtofl@val
  5753     0746  3000               	movlw	0
  5754     0747  318F  2756  3186   	fcall	___xxtofl
  5755     074A  0873               	movf	?___xxtofl+3,w
  5756     074B  0020               	movlb	0	; select bank0
  5757     074C  00D1               	movwf	___fldiv@b+3
  5758     074D  0872               	movf	?___xxtofl+2,w
  5759     074E  00D0               	movwf	___fldiv@b+2
  5760     074F  0871               	movf	?___xxtofl+1,w
  5761     0750  00CF               	movwf	___fldiv@b+1
  5762     0751  0870               	movf	?___xxtofl,w
  5763     0752  00CE               	movwf	___fldiv@b
  5764     0753  3041               	movlw	65
  5765     0754  00CD               	movwf	___fldiv@a+3
  5766     0755  3020               	movlw	32
  5767     0756  00CC               	movwf	___fldiv@a+2
  5768     0757  3000               	movlw	0
  5769     0758  00CB               	movwf	___fldiv@a+1
  5770     0759  3000               	movlw	0
  5771     075A  00CA               	movwf	___fldiv@a
  5772     075B  3184  2481  3186   	fcall	___fldiv
  5773     075E  0020               	movlb	0	; select bank0
  5774     075F  084D               	movf	?___fldiv+3,w
  5775     0760  00AB               	movwf	___flsub@a+3
  5776     0761  084C               	movf	?___fldiv+2,w
  5777     0762  00AA               	movwf	___flsub@a+2
  5778     0763  084B               	movf	?___fldiv+1,w
  5779     0764  00A9               	movwf	___flsub@a+1
  5780     0765  084A               	movf	?___fldiv,w
  5781     0766  00A8               	movwf	___flsub@a
  5782     0767  318C  2443  3186   	fcall	___flsub
  5783     076A  0020               	movlb	0	; select bank0
  5784     076B  082B               	movf	?___flsub+3,w
  5785     076C  00B7               	movwf	___flmul@a+3
  5786     076D  082A               	movf	?___flsub+2,w
  5787     076E  00B6               	movwf	___flmul@a+2
  5788     076F  0829               	movf	?___flsub+1,w
  5789     0770  00B5               	movwf	___flmul@a+1
  5790     0771  0828               	movf	?___flsub,w
  5791     0772  00B4               	movwf	___flmul@a
  5792     0773  3042               	movlw	66
  5793     0774  00B3               	movwf	___flmul@b+3
  5794     0775  30C8               	movlw	200
  5795     0776  00B2               	movwf	___flmul@b+2
  5796     0777  3000               	movlw	0
  5797     0778  00B1               	movwf	___flmul@b+1
  5798     0779  3000               	movlw	0
  5799     077A  00B0               	movwf	___flmul@b
  5800     077B  3180  203A  3186   	fcall	___flmul
  5801     077E  0020               	movlb	0	; select bank0
  5802     077F  0833               	movf	?___flmul+3,w
  5803     0780  00E7               	movwf	___fltol@f1+3
  5804     0781  0832               	movf	?___flmul+2,w
  5805     0782  00E6               	movwf	___fltol@f1+2
  5806     0783  0831               	movf	?___flmul+1,w
  5807     0784  00E5               	movwf	___fltol@f1+1
  5808     0785  0830               	movf	?___flmul,w
  5809     0786  00E4               	movwf	___fltol@f1
  5810     0787  318D  255D  3186   	fcall	___fltol
  5811     078A  0020               	movlb	0	; select bank0
  5812     078B  0864               	movf	?___fltol,w
  5813     078C  0081               	movwf	1
  5814     078D                     l2987:
  5815                           
  5816                           ;nuestrodisplay.c: 37:     if(dis->Digito1>9||dis->Digito2>9||dis->Digito3>9){
  5817     078D  0021               	movlb	1	; select bank1
  5818     078E  082D               	movf	ADC2Display@dis^(0+128),w
  5819     078F  0086               	movwf	6
  5820     0790  0187               	clrf	7
  5821     0791  300A               	movlw	10
  5822     0792  0201               	subwf	1,w
  5823     0793  1803               	skipnc
  5824     0794  2F96               	goto	u2881
  5825     0795  2F97               	goto	u2880
  5826     0796                     u2881:
  5827     0796  2FAA               	goto	l2993
  5828     0797                     u2880:
  5829     0797                     l2989:
  5830     0797  0A2D               	incf	ADC2Display@dis^(0+128),w
  5831     0798  0086               	movwf	6
  5832     0799  0187               	clrf	7
  5833     079A  300A               	movlw	10
  5834     079B  0201               	subwf	1,w
  5835     079C  1803               	skipnc
  5836     079D  2F9F               	goto	u2891
  5837     079E  2FA0               	goto	u2890
  5838     079F                     u2891:
  5839     079F  2FAA               	goto	l2993
  5840     07A0                     u2890:
  5841     07A0                     l2991:
  5842     07A0  082D               	movf	ADC2Display@dis^(0+128),w
  5843     07A1  3E02               	addlw	2
  5844     07A2  0086               	movwf	6
  5845     07A3  0187               	clrf	7
  5846     07A4  300A               	movlw	10
  5847     07A5  0201               	subwf	1,w
  5848     07A6  1C03               	skipc
  5849     07A7  2FA9               	goto	u2901
  5850     07A8  2FAA               	goto	u2900
  5851     07A9                     u2901:
  5852     07A9  2FBA               	goto	l410
  5853     07AA                     u2900:
  5854     07AA                     l2993:
  5855                           
  5856                           ;nuestrodisplay.c: 38:         dis->Digito1=9;
  5857     07AA  082D               	movf	ADC2Display@dis^(0+128),w
  5858     07AB  0086               	movwf	6
  5859     07AC  0187               	clrf	7
  5860     07AD  3009               	movlw	9
  5861     07AE  0081               	movwf	1
  5862                           
  5863                           ;nuestrodisplay.c: 39:         dis->Digito2=9;
  5864     07AF  0A2D               	incf	ADC2Display@dis^(0+128),w
  5865     07B0  0086               	movwf	6
  5866     07B1  0187               	clrf	7
  5867     07B2  3009               	movlw	9
  5868     07B3  0081               	movwf	1
  5869     07B4                     l2995:
  5870                           
  5871                           ;nuestrodisplay.c: 40:         dis->Digito3=9;
  5872     07B4  082D               	movf	ADC2Display@dis^(0+128),w
  5873     07B5  3E02               	addlw	2
  5874     07B6  0086               	movwf	6
  5875     07B7  0187               	clrf	7
  5876     07B8  3009               	movlw	9
  5877     07B9  0081               	movwf	1
  5878     07BA                     l410:
  5879     07BA  0008               	return
  5880     07BB                     __end_of_ADC2Display:
  5881                           
  5882                           	psect	text31
  5883     0F56                     __ptext31:	
  5884 ;; *************** function ___xxtofl *****************
  5885 ;; Defined at:
  5886 ;;		line 10 in file "C:\Program Files\Microchip\xc8\v2.40\pic\sources\c99\common\xxtofl.c"
  5887 ;; Parameters:    Size  Location     Type
  5888 ;;  sign            1    wreg     unsigned char 
  5889 ;;  val             4    0[COMMON] long 
  5890 ;; Auto vars:     Size  Location     Type
  5891 ;;  sign            1    8[COMMON] unsigned char 
  5892 ;;  arg             4   10[COMMON] unsigned long 
  5893 ;;  exp             1    9[COMMON] unsigned char 
  5894 ;; Return value:  Size  Location     Type
  5895 ;;                  4    0[COMMON] unsigned char 
  5896 ;; Registers used:
  5897 ;;		wreg, status,2, status,0
  5898 ;; Tracked objects:
  5899 ;;		On entry : 0/0
  5900 ;;		On exit  : 0/0
  5901 ;;		Unchanged: 0/0
  5902 ;; Data sizes:     COMMON   BANK0   BANK1   BANK2   BANK3   BANK4
  5903 ;;      Params:         4       0       0       0       0       0
  5904 ;;      Locals:         6       0       0       0       0       0
  5905 ;;      Temps:          4       0       0       0       0       0
  5906 ;;      Totals:        14       0       0       0       0       0
  5907 ;;Total ram usage:       14 bytes
  5908 ;; Hardware stack levels used: 1
  5909 ;; Hardware stack levels required when called: 3
  5910 ;; This function calls:
  5911 ;;		Nothing
  5912 ;; This function is called by:
  5913 ;;		_ADC2Display
  5914 ;; This function uses a non-reentrant model
  5915 ;;
  5916                           
  5917     0F56                     ___xxtofl:	
  5918                           ;psect for function ___xxtofl
  5919                           
  5920                           
  5921                           ;incstack = 0
  5922                           ; Regs used in ___xxtofl: [wreg+status,2+status,0]
  5923                           ;___xxtofl@sign stored from wreg
  5924     0F56  00F8               	movwf	___xxtofl@sign
  5925     0F57                     l2815:
  5926     0F57  0878               	movf	___xxtofl@sign,w
  5927     0F58  1903               	btfsc	3,2
  5928     0F59  2F5B               	goto	u2661
  5929     0F5A  2F5C               	goto	u2660
  5930     0F5B                     u2661:
  5931     0F5B  2F70               	goto	l2821
  5932     0F5C                     u2660:
  5933     0F5C                     l2817:
  5934     0F5C  1FF3               	btfss	___xxtofl@val+3,7
  5935     0F5D  2F5F               	goto	u2671
  5936     0F5E  2F60               	goto	u2670
  5937     0F5F                     u2671:
  5938     0F5F  2F70               	goto	l2821
  5939     0F60                     u2670:
  5940     0F60                     l2819:
  5941     0F60  0970               	comf	___xxtofl@val,w
  5942     0F61  00FA               	movwf	___xxtofl@arg
  5943     0F62  0971               	comf	___xxtofl@val+1,w
  5944     0F63  00FB               	movwf	___xxtofl@arg+1
  5945     0F64  0972               	comf	___xxtofl@val+2,w
  5946     0F65  00FC               	movwf	___xxtofl@arg+2
  5947     0F66  0973               	comf	___xxtofl@val+3,w
  5948     0F67  00FD               	movwf	___xxtofl@arg+3
  5949     0F68  0AFA               	incf	___xxtofl@arg,f
  5950     0F69  1903               	skipnz
  5951     0F6A  0AFB               	incf	___xxtofl@arg+1,f
  5952     0F6B  1903               	skipnz
  5953     0F6C  0AFC               	incf	___xxtofl@arg+2,f
  5954     0F6D  1903               	skipnz
  5955     0F6E  0AFD               	incf	___xxtofl@arg+3,f
  5956     0F6F  2F78               	goto	l1200
  5957     0F70                     l2821:
  5958     0F70  0873               	movf	___xxtofl@val+3,w
  5959     0F71  00FD               	movwf	___xxtofl@arg+3
  5960     0F72  0872               	movf	___xxtofl@val+2,w
  5961     0F73  00FC               	movwf	___xxtofl@arg+2
  5962     0F74  0871               	movf	___xxtofl@val+1,w
  5963     0F75  00FB               	movwf	___xxtofl@arg+1
  5964     0F76  0870               	movf	___xxtofl@val,w
  5965     0F77  00FA               	movwf	___xxtofl@arg
  5966     0F78                     l1200:
  5967     0F78  0873               	movf	___xxtofl@val+3,w
  5968     0F79  0472               	iorwf	___xxtofl@val+2,w
  5969     0F7A  0471               	iorwf	___xxtofl@val+1,w
  5970     0F7B  0470               	iorwf	___xxtofl@val,w
  5971     0F7C  1D03               	skipz
  5972     0F7D  2F7F               	goto	u2681
  5973     0F7E  2F80               	goto	u2680
  5974     0F7F                     u2681:
  5975     0F7F  2F89               	goto	l2827
  5976     0F80                     u2680:
  5977     0F80                     l2823:
  5978     0F80  3000               	movlw	0
  5979     0F81  00F3               	movwf	?___xxtofl+3
  5980     0F82  3000               	movlw	0
  5981     0F83  00F2               	movwf	?___xxtofl+2
  5982     0F84  3000               	movlw	0
  5983     0F85  00F1               	movwf	?___xxtofl+1
  5984     0F86  3000               	movlw	0
  5985     0F87  00F0               	movwf	?___xxtofl
  5986     0F88  2FFF               	goto	l1202
  5987     0F89                     l2827:
  5988     0F89  3096               	movlw	150
  5989     0F8A  00F9               	movwf	___xxtofl@exp
  5990     0F8B  2F97               	goto	l2831
  5991     0F8C                     l2829:
  5992     0F8C  3001               	movlw	1
  5993     0F8D  00F4               	movwf	??___xxtofl
  5994     0F8E  0874               	movf	??___xxtofl,w
  5995     0F8F  07F9               	addwf	___xxtofl@exp,f
  5996     0F90  3001               	movlw	1
  5997     0F91                     u2695:
  5998     0F91  36FD               	lsrf	___xxtofl@arg+3,f
  5999     0F92  0CFC               	rrf	___xxtofl@arg+2,f
  6000     0F93  0CFB               	rrf	___xxtofl@arg+1,f
  6001     0F94  0CFA               	rrf	___xxtofl@arg,f
  6002     0F95  0B89               	decfsz	9,f
  6003     0F96  2F91               	goto	u2695
  6004     0F97                     l2831:
  6005     0F97  30FE               	movlw	254
  6006     0F98  057D               	andwf	___xxtofl@arg+3,w
  6007     0F99  1D03               	btfss	3,2
  6008     0F9A  2F9C               	goto	u2701
  6009     0F9B  2F9D               	goto	u2700
  6010     0F9C                     u2701:
  6011     0F9C  2F8C               	goto	l2829
  6012     0F9D                     u2700:
  6013     0F9D  2FB1               	goto	l1206
  6014     0F9E                     l2833:
  6015     0F9E  3001               	movlw	1
  6016     0F9F  00F4               	movwf	??___xxtofl
  6017     0FA0  0874               	movf	??___xxtofl,w
  6018     0FA1  07F9               	addwf	___xxtofl@exp,f
  6019     0FA2                     l2835:
  6020     0FA2  3001               	movlw	1
  6021     0FA3  07FA               	addwf	___xxtofl@arg,f
  6022     0FA4  3000               	movlw	0
  6023     0FA5  3DFB               	addwfc	___xxtofl@arg+1,f
  6024     0FA6  3000               	movlw	0
  6025     0FA7  3DFC               	addwfc	___xxtofl@arg+2,f
  6026     0FA8  3000               	movlw	0
  6027     0FA9  3DFD               	addwfc	___xxtofl@arg+3,f
  6028     0FAA                     l2837:
  6029     0FAA  3001               	movlw	1
  6030     0FAB                     u2715:
  6031     0FAB  36FD               	lsrf	___xxtofl@arg+3,f
  6032     0FAC  0CFC               	rrf	___xxtofl@arg+2,f
  6033     0FAD  0CFB               	rrf	___xxtofl@arg+1,f
  6034     0FAE  0CFA               	rrf	___xxtofl@arg,f
  6035     0FAF  0B89               	decfsz	9,f
  6036     0FB0  2FAB               	goto	u2715
  6037     0FB1                     l1206:
  6038     0FB1  30FF               	movlw	255
  6039     0FB2  057D               	andwf	___xxtofl@arg+3,w
  6040     0FB3  1D03               	btfss	3,2
  6041     0FB4  2FB6               	goto	u2721
  6042     0FB5  2FB7               	goto	u2720
  6043     0FB6                     u2721:
  6044     0FB6  2F9E               	goto	l2833
  6045     0FB7                     u2720:
  6046     0FB7  2FC1               	goto	l2841
  6047     0FB8                     l2839:
  6048     0FB8  3001               	movlw	1
  6049     0FB9  02F9               	subwf	___xxtofl@exp,f
  6050     0FBA  3001               	movlw	1
  6051     0FBB                     u2735:
  6052     0FBB  35FA               	lslf	___xxtofl@arg,f
  6053     0FBC  0DFB               	rlf	___xxtofl@arg+1,f
  6054     0FBD  0DFC               	rlf	___xxtofl@arg+2,f
  6055     0FBE  0DFD               	rlf	___xxtofl@arg+3,f
  6056     0FBF  0B89               	decfsz	9,f
  6057     0FC0  2FBB               	goto	u2735
  6058     0FC1                     l2841:
  6059     0FC1  1BFC               	btfsc	___xxtofl@arg+2,7
  6060     0FC2  2FC4               	goto	u2741
  6061     0FC3  2FC5               	goto	u2740
  6062     0FC4                     u2741:
  6063     0FC4  2FCB               	goto	l1213
  6064     0FC5                     u2740:
  6065     0FC5                     l2843:
  6066     0FC5  3002               	movlw	2
  6067     0FC6  0279               	subwf	___xxtofl@exp,w
  6068     0FC7  1803               	skipnc
  6069     0FC8  2FCA               	goto	u2751
  6070     0FC9  2FCB               	goto	u2750
  6071     0FCA                     u2751:
  6072     0FCA  2FB8               	goto	l2839
  6073     0FCB                     u2750:
  6074     0FCB                     l1213:
  6075     0FCB  1879               	btfsc	___xxtofl@exp,0
  6076     0FCC  2FCE               	goto	u2761
  6077     0FCD  2FCF               	goto	u2760
  6078     0FCE                     u2761:
  6079     0FCE  2FD7               	goto	l1214
  6080     0FCF                     u2760:
  6081     0FCF                     l2845:
  6082     0FCF  30FF               	movlw	255
  6083     0FD0  05FA               	andwf	___xxtofl@arg,f
  6084     0FD1  30FF               	movlw	255
  6085     0FD2  05FB               	andwf	___xxtofl@arg+1,f
  6086     0FD3  307F               	movlw	127
  6087     0FD4  05FC               	andwf	___xxtofl@arg+2,f
  6088     0FD5  30FF               	movlw	255
  6089     0FD6  05FD               	andwf	___xxtofl@arg+3,f
  6090     0FD7                     l1214:
  6091     0FD7  1003               	clrc
  6092     0FD8  0CF9               	rrf	___xxtofl@exp,f
  6093     0FD9                     l2847:
  6094     0FD9  0879               	movf	___xxtofl@exp,w
  6095     0FDA  00F4               	movwf	??___xxtofl
  6096     0FDB  01F5               	clrf	??___xxtofl+1
  6097     0FDC  01F6               	clrf	??___xxtofl+2
  6098     0FDD  01F7               	clrf	??___xxtofl+3
  6099     0FDE  3018               	movlw	24
  6100     0FDF                     u2775:
  6101     0FDF  35F4               	lslf	??___xxtofl,f
  6102     0FE0  0DF5               	rlf	??___xxtofl+1,f
  6103     0FE1  0DF6               	rlf	??___xxtofl+2,f
  6104     0FE2  0DF7               	rlf	??___xxtofl+3,f
  6105     0FE3                     u2770:
  6106     0FE3  0B89               	decfsz	9,f
  6107     0FE4  2FDF               	goto	u2775
  6108     0FE5  0874               	movf	??___xxtofl,w
  6109     0FE6  04FA               	iorwf	___xxtofl@arg,f
  6110     0FE7  0875               	movf	??___xxtofl+1,w
  6111     0FE8  04FB               	iorwf	___xxtofl@arg+1,f
  6112     0FE9  0876               	movf	??___xxtofl+2,w
  6113     0FEA  04FC               	iorwf	___xxtofl@arg+2,f
  6114     0FEB  0877               	movf	??___xxtofl+3,w
  6115     0FEC  04FD               	iorwf	___xxtofl@arg+3,f
  6116     0FED                     l2849:
  6117     0FED  0878               	movf	___xxtofl@sign,w
  6118     0FEE  1903               	btfsc	3,2
  6119     0FEF  2FF1               	goto	u2781
  6120     0FF0  2FF2               	goto	u2780
  6121     0FF1                     u2781:
  6122     0FF1  2FF7               	goto	l2855
  6123     0FF2                     u2780:
  6124     0FF2                     l2851:
  6125     0FF2  1FF3               	btfss	___xxtofl@val+3,7
  6126     0FF3  2FF5               	goto	u2791
  6127     0FF4  2FF6               	goto	u2790
  6128     0FF5                     u2791:
  6129     0FF5  2FF7               	goto	l2855
  6130     0FF6                     u2790:
  6131     0FF6                     l2853:
  6132     0FF6  17FD               	bsf	___xxtofl@arg+3,7
  6133     0FF7                     l2855:
  6134     0FF7  087D               	movf	___xxtofl@arg+3,w
  6135     0FF8  00F3               	movwf	?___xxtofl+3
  6136     0FF9  087C               	movf	___xxtofl@arg+2,w
  6137     0FFA  00F2               	movwf	?___xxtofl+2
  6138     0FFB  087B               	movf	___xxtofl@arg+1,w
  6139     0FFC  00F1               	movwf	?___xxtofl+1
  6140     0FFD  087A               	movf	___xxtofl@arg,w
  6141     0FFE  00F0               	movwf	?___xxtofl
  6142     0FFF                     l1202:
  6143     0FFF  0008               	return
  6144     1000                     __end_of___xxtofl:
  6145                           
  6146                           	psect	text32
  6147     0D5D                     __ptext32:	
  6148 ;; *************** function ___fltol *****************
  6149 ;; Defined at:
  6150 ;;		line 43 in file "C:\Program Files\Microchip\xc8\v2.40\pic\sources\c99\common\fltol.c"
  6151 ;; Parameters:    Size  Location     Type
  6152 ;;  f1              4   68[BANK0 ] unsigned char 
  6153 ;; Auto vars:     Size  Location     Type
  6154 ;;  exp1            1   77[BANK0 ] unsigned char 
  6155 ;;  sign1           1   76[BANK0 ] unsigned char 
  6156 ;; Return value:  Size  Location     Type
  6157 ;;                  4   68[BANK0 ] long 
  6158 ;; Registers used:
  6159 ;;		wreg, status,2, status,0
  6160 ;; Tracked objects:
  6161 ;;		On entry : 0/0
  6162 ;;		On exit  : 0/0
  6163 ;;		Unchanged: 0/0
  6164 ;; Data sizes:     COMMON   BANK0   BANK1   BANK2   BANK3   BANK4
  6165 ;;      Params:         0       4       0       0       0       0
  6166 ;;      Locals:         0       2       0       0       0       0
  6167 ;;      Temps:          0       4       0       0       0       0
  6168 ;;      Totals:         0      10       0       0       0       0
  6169 ;;Total ram usage:       10 bytes
  6170 ;; Hardware stack levels used: 1
  6171 ;; Hardware stack levels required when called: 3
  6172 ;; This function calls:
  6173 ;;		Nothing
  6174 ;; This function is called by:
  6175 ;;		_ADC2Display
  6176 ;; This function uses a non-reentrant model
  6177 ;;
  6178                           
  6179     0D5D                     ___fltol:	
  6180                           ;psect for function ___fltol
  6181                           
  6182     0D5D                     l2493:	
  6183                           ;incstack = 0
  6184                           ; Regs used in ___fltol: [wreg+status,2+status,0]
  6185                           
  6186     0D5D  1003               	clrc
  6187     0D5E  0020               	movlb	0	; select bank0
  6188     0D5F  0D66               	rlf	___fltol@f1+2,w
  6189     0D60  0D67               	rlf	___fltol@f1+3,w
  6190     0D61  00ED               	movwf	___fltol@exp1
  6191     0D62  086D               	movf	___fltol@exp1,w
  6192     0D63  1D03               	btfss	3,2
  6193     0D64  2D66               	goto	u2011
  6194     0D65  2D67               	goto	u2010
  6195     0D66                     u2011:
  6196     0D66  2D70               	goto	l2499
  6197     0D67                     u2010:
  6198     0D67                     l2495:
  6199     0D67  3000               	movlw	0
  6200     0D68  00E7               	movwf	?___fltol+3
  6201     0D69  3000               	movlw	0
  6202     0D6A  00E6               	movwf	?___fltol+2
  6203     0D6B  3000               	movlw	0
  6204     0D6C  00E5               	movwf	?___fltol+1
  6205     0D6D  3000               	movlw	0
  6206     0D6E  00E4               	movwf	?___fltol
  6207     0D6F  2DCD               	goto	l953
  6208     0D70                     l2499:
  6209     0D70  0864               	movf	___fltol@f1,w
  6210     0D71  00E8               	movwf	??___fltol
  6211     0D72  0865               	movf	___fltol@f1+1,w
  6212     0D73  00E9               	movwf	??___fltol+1
  6213     0D74  0866               	movf	___fltol@f1+2,w
  6214     0D75  00EA               	movwf	??___fltol+2
  6215     0D76  0867               	movf	___fltol@f1+3,w
  6216     0D77  00EB               	movwf	??___fltol+3
  6217     0D78  301F               	movlw	31
  6218     0D79                     u2025:
  6219     0D79  36EB               	lsrf	??___fltol+3,f
  6220     0D7A  0CEA               	rrf	??___fltol+2,f
  6221     0D7B  0CE9               	rrf	??___fltol+1,f
  6222     0D7C  0CE8               	rrf	??___fltol,f
  6223     0D7D                     u2020:
  6224     0D7D  0B89               	decfsz	9,f
  6225     0D7E  2D79               	goto	u2025
  6226     0D7F  0868               	movf	??___fltol,w
  6227     0D80  00EC               	movwf	___fltol@sign1
  6228     0D81                     l2501:
  6229     0D81  17E6               	bsf	___fltol@f1+2,7
  6230     0D82                     l2503:
  6231     0D82  30FF               	movlw	255
  6232     0D83  05E4               	andwf	___fltol@f1,f
  6233     0D84  30FF               	movlw	255
  6234     0D85  05E5               	andwf	___fltol@f1+1,f
  6235     0D86  30FF               	movlw	255
  6236     0D87  05E6               	andwf	___fltol@f1+2,f
  6237     0D88  3000               	movlw	0
  6238     0D89  05E7               	andwf	___fltol@f1+3,f
  6239     0D8A                     l2505:
  6240     0D8A  3096               	movlw	150
  6241     0D8B  02ED               	subwf	___fltol@exp1,f
  6242     0D8C                     l2507:
  6243     0D8C  1FED               	btfss	___fltol@exp1,7
  6244     0D8D  2D8F               	goto	u2031
  6245     0D8E  2D90               	goto	u2030
  6246     0D8F                     u2031:
  6247     0D8F  2DA8               	goto	l2517
  6248     0D90                     u2030:
  6249     0D90                     l2509:
  6250     0D90  086D               	movf	___fltol@exp1,w
  6251     0D91  3A80               	xorlw	128
  6252     0D92  3E97               	addlw	151
  6253     0D93  1803               	skipnc
  6254     0D94  2D96               	goto	u2041
  6255     0D95  2D97               	goto	u2040
  6256     0D96                     u2041:
  6257     0D96  2D98               	goto	l2515
  6258     0D97                     u2040:
  6259     0D97  2D67               	goto	l2495
  6260     0D98                     l2515:
  6261     0D98  3001               	movlw	1
  6262     0D99                     u2055:
  6263     0D99  36E7               	lsrf	___fltol@f1+3,f
  6264     0D9A  0CE6               	rrf	___fltol@f1+2,f
  6265     0D9B  0CE5               	rrf	___fltol@f1+1,f
  6266     0D9C  0CE4               	rrf	___fltol@f1,f
  6267     0D9D  0B89               	decfsz	9,f
  6268     0D9E  2D99               	goto	u2055
  6269     0D9F  3001               	movlw	1
  6270     0DA0  00E8               	movwf	??___fltol
  6271     0DA1  0868               	movf	??___fltol,w
  6272     0DA2  07ED               	addwf	___fltol@exp1,f
  6273     0DA3  1D03               	btfss	3,2
  6274     0DA4  2DA6               	goto	u2061
  6275     0DA5  2DA7               	goto	u2060
  6276     0DA6                     u2061:
  6277     0DA6  2D98               	goto	l2515
  6278     0DA7                     u2060:
  6279     0DA7  2DBD               	goto	l2525
  6280     0DA8                     l2517:
  6281     0DA8  3020               	movlw	32
  6282     0DA9  026D               	subwf	___fltol@exp1,w
  6283     0DAA  1C03               	skipc
  6284     0DAB  2DAD               	goto	u2071
  6285     0DAC  2DAE               	goto	u2070
  6286     0DAD                     u2071:
  6287     0DAD  2DB8               	goto	l960
  6288     0DAE                     u2070:
  6289     0DAE  2D67               	goto	l2495
  6290     0DAF                     l2523:
  6291     0DAF  3001               	movlw	1
  6292     0DB0                     u2085:
  6293     0DB0  35E4               	lslf	___fltol@f1,f
  6294     0DB1  0DE5               	rlf	___fltol@f1+1,f
  6295     0DB2  0DE6               	rlf	___fltol@f1+2,f
  6296     0DB3  0DE7               	rlf	___fltol@f1+3,f
  6297     0DB4  0B89               	decfsz	9,f
  6298     0DB5  2DB0               	goto	u2085
  6299     0DB6  3001               	movlw	1
  6300     0DB7  02ED               	subwf	___fltol@exp1,f
  6301     0DB8                     l960:
  6302     0DB8  086D               	movf	___fltol@exp1,w
  6303     0DB9  1D03               	btfss	3,2
  6304     0DBA  2DBC               	goto	u2091
  6305     0DBB  2DBD               	goto	u2090
  6306     0DBC                     u2091:
  6307     0DBC  2DAF               	goto	l2523
  6308     0DBD                     u2090:
  6309     0DBD                     l2525:
  6310     0DBD  086C               	movf	___fltol@sign1,w
  6311     0DBE  1903               	btfsc	3,2
  6312     0DBF  2DC1               	goto	u2101
  6313     0DC0  2DC2               	goto	u2100
  6314     0DC1                     u2101:
  6315     0DC1  2DCD               	goto	l963
  6316     0DC2                     u2100:
  6317     0DC2                     l2527:
  6318     0DC2  09E4               	comf	___fltol@f1,f
  6319     0DC3  09E5               	comf	___fltol@f1+1,f
  6320     0DC4  09E6               	comf	___fltol@f1+2,f
  6321     0DC5  09E7               	comf	___fltol@f1+3,f
  6322     0DC6  0AE4               	incf	___fltol@f1,f
  6323     0DC7  1903               	skipnz
  6324     0DC8  0AE5               	incf	___fltol@f1+1,f
  6325     0DC9  1903               	skipnz
  6326     0DCA  0AE6               	incf	___fltol@f1+2,f
  6327     0DCB  1903               	skipnz
  6328     0DCC  0AE7               	incf	___fltol@f1+3,f
  6329     0DCD                     l963:
  6330     0DCD                     l953:
  6331     0DCD  0008               	return
  6332     0DCE                     __end_of___fltol:
  6333                           
  6334                           	psect	text33
  6335     0C43                     __ptext33:	
  6336 ;; *************** function ___flsub *****************
  6337 ;; Defined at:
  6338 ;;		line 242 in file "C:\Program Files\Microchip\xc8\v2.40\pic\sources\c99\common\sprcadd.c"
  6339 ;; Parameters:    Size  Location     Type
  6340 ;;  a               4    8[BANK0 ] long 
  6341 ;;  b               4   12[BANK0 ] long 
  6342 ;; Auto vars:     Size  Location     Type
  6343 ;;		None
  6344 ;; Return value:  Size  Location     Type
  6345 ;;                  4    8[BANK0 ] long 
  6346 ;; Registers used:
  6347 ;;		wreg, status,2, status,0, pclath, cstack
  6348 ;; Tracked objects:
  6349 ;;		On entry : 0/0
  6350 ;;		On exit  : 0/0
  6351 ;;		Unchanged: 0/0
  6352 ;; Data sizes:     COMMON   BANK0   BANK1   BANK2   BANK3   BANK4
  6353 ;;      Params:         0       8       0       0       0       0
  6354 ;;      Locals:         0       0       0       0       0       0
  6355 ;;      Temps:          0       0       0       0       0       0
  6356 ;;      Totals:         0       8       0       0       0       0
  6357 ;;Total ram usage:        8 bytes
  6358 ;; Hardware stack levels used: 1
  6359 ;; Hardware stack levels required when called: 4
  6360 ;; This function calls:
  6361 ;;		___fladd
  6362 ;; This function is called by:
  6363 ;;		_ADC2Display
  6364 ;; This function uses a non-reentrant model
  6365 ;;
  6366                           
  6367     0C43                     ___flsub:	
  6368                           ;psect for function ___flsub
  6369                           
  6370     0C43                     l2529:	
  6371                           ;incstack = 0
  6372                           ; Regs used in ___flsub: [wreg+status,2+status,0+pclath+cstack]
  6373                           
  6374     0C43  3080               	movlw	128
  6375     0C44  0020               	movlb	0	; select bank0
  6376     0C45  06AB               	xorwf	___flsub@a+3,f
  6377     0C46                     l2531:
  6378     0C46  082F               	movf	___flsub@b+3,w
  6379     0C47  00F3               	movwf	___fladd@b+3
  6380     0C48  082E               	movf	___flsub@b+2,w
  6381     0C49  00F2               	movwf	___fladd@b+2
  6382     0C4A  082D               	movf	___flsub@b+1,w
  6383     0C4B  00F1               	movwf	___fladd@b+1
  6384     0C4C  082C               	movf	___flsub@b,w
  6385     0C4D  00F0               	movwf	___fladd@b
  6386     0C4E  082B               	movf	___flsub@a+3,w
  6387     0C4F  00F7               	movwf	___fladd@a+3
  6388     0C50  082A               	movf	___flsub@a+2,w
  6389     0C51  00F6               	movwf	___fladd@a+2
  6390     0C52  0829               	movf	___flsub@a+1,w
  6391     0C53  00F5               	movwf	___fladd@a+1
  6392     0C54  0828               	movf	___flsub@a,w
  6393     0C55  00F4               	movwf	___fladd@a
  6394     0C56  3182  2275  318C   	fcall	___fladd
  6395     0C59  0873               	movf	?___fladd+3,w
  6396     0C5A  0020               	movlb	0	; select bank0
  6397     0C5B  00AB               	movwf	?___flsub+3
  6398     0C5C  0872               	movf	?___fladd+2,w
  6399     0C5D  00AA               	movwf	?___flsub+2
  6400     0C5E  0871               	movf	?___fladd+1,w
  6401     0C5F  00A9               	movwf	?___flsub+1
  6402     0C60  0870               	movf	?___fladd,w
  6403     0C61  00A8               	movwf	?___flsub
  6404     0C62                     l1106:
  6405     0C62  0008               	return
  6406     0C63                     __end_of___flsub:
  6407                           
  6408                           	psect	text34
  6409     0275                     __ptext34:	
  6410 ;; *************** function ___fladd *****************
  6411 ;; Defined at:
  6412 ;;		line 10 in file "C:\Program Files\Microchip\xc8\v2.40\pic\sources\c99\common\sprcadd.c"
  6413 ;; Parameters:    Size  Location     Type
  6414 ;;  b               4    0[COMMON] long 
  6415 ;;  a               4    4[COMMON] long 
  6416 ;; Auto vars:     Size  Location     Type
  6417 ;;  grs             1   11[COMMON] unsigned char 
  6418 ;;  bexp            1   10[COMMON] unsigned char 
  6419 ;;  aexp            1    9[COMMON] unsigned char 
  6420 ;;  signs           1    8[COMMON] unsigned char 
  6421 ;; Return value:  Size  Location     Type
  6422 ;;                  4    0[COMMON] unsigned char 
  6423 ;; Registers used:
  6424 ;;		wreg, status,2, status,0
  6425 ;; Tracked objects:
  6426 ;;		On entry : 0/0
  6427 ;;		On exit  : 0/0
  6428 ;;		Unchanged: 0/0
  6429 ;; Data sizes:     COMMON   BANK0   BANK1   BANK2   BANK3   BANK4
  6430 ;;      Params:         8       0       0       0       0       0
  6431 ;;      Locals:         4       0       0       0       0       0
  6432 ;;      Temps:          0       8       0       0       0       0
  6433 ;;      Totals:        12       8       0       0       0       0
  6434 ;;Total ram usage:       20 bytes
  6435 ;; Hardware stack levels used: 1
  6436 ;; Hardware stack levels required when called: 3
  6437 ;; This function calls:
  6438 ;;		Nothing
  6439 ;; This function is called by:
  6440 ;;		___flsub
  6441 ;; This function uses a non-reentrant model
  6442 ;;
  6443                           
  6444     0275                     ___fladd:	
  6445                           ;psect for function ___fladd
  6446                           
  6447     0275                     l2211:	
  6448                           ;incstack = 0
  6449                           ; Regs used in ___fladd: [wreg+status,2+status,0]
  6450                           
  6451     0275  0873               	movf	___fladd@b+3,w
  6452     0276  3980               	andlw	128
  6453     0277  00F8               	movwf	___fladd@signs
  6454     0278                     l2213:
  6455     0278  3573               	lslf	___fladd@b+3,w
  6456     0279  00FA               	movwf	___fladd@bexp
  6457     027A                     l2215:
  6458     027A  1FF2               	btfss	___fladd@b+2,7
  6459     027B  2A7D               	goto	u1541
  6460     027C  2A7E               	goto	u1540
  6461     027D                     u1541:
  6462     027D  2A7F               	goto	l2219
  6463     027E                     u1540:
  6464     027E                     l2217:
  6465     027E  147A               	bsf	___fladd@bexp,0
  6466     027F                     l2219:
  6467     027F  087A               	movf	___fladd@bexp,w
  6468     0280  1903               	btfsc	3,2
  6469     0281  2A83               	goto	u1551
  6470     0282  2A84               	goto	u1550
  6471     0283                     u1551:
  6472     0283  2A94               	goto	l2229
  6473     0284                     u1550:
  6474     0284                     l2221:
  6475     0284  0A7A               	incf	___fladd@bexp,w
  6476     0285  1D03               	btfss	3,2
  6477     0286  2A88               	goto	u1561
  6478     0287  2A89               	goto	u1560
  6479     0288                     u1561:
  6480     0288  2A91               	goto	l2225
  6481     0289                     u1560:
  6482     0289                     l2223:
  6483     0289  3000               	movlw	0
  6484     028A  00F3               	movwf	___fladd@b+3
  6485     028B  3000               	movlw	0
  6486     028C  00F2               	movwf	___fladd@b+2
  6487     028D  3000               	movlw	0
  6488     028E  00F1               	movwf	___fladd@b+1
  6489     028F  3000               	movlw	0
  6490     0290  00F0               	movwf	___fladd@b
  6491     0291                     l2225:
  6492     0291  17F2               	bsf	___fladd@b+2,7
  6493     0292                     l2227:
  6494     0292  01F3               	clrf	___fladd@b+3
  6495     0293  2A9C               	goto	l2231
  6496     0294                     l2229:
  6497     0294  3000               	movlw	0
  6498     0295  00F3               	movwf	___fladd@b+3
  6499     0296  3000               	movlw	0
  6500     0297  00F2               	movwf	___fladd@b+2
  6501     0298  3000               	movlw	0
  6502     0299  00F1               	movwf	___fladd@b+1
  6503     029A  3000               	movlw	0
  6504     029B  00F0               	movwf	___fladd@b
  6505     029C                     l2231:
  6506     029C  0877               	movf	___fladd@a+3,w
  6507     029D  3980               	andlw	128
  6508     029E  00F9               	movwf	___fladd@aexp
  6509     029F                     l2233:
  6510     029F  0879               	movf	___fladd@aexp,w
  6511     02A0  0678               	xorwf	___fladd@signs,w
  6512     02A1  1903               	skipnz
  6513     02A2  2AA4               	goto	u1571
  6514     02A3  2AA5               	goto	u1570
  6515     02A4                     u1571:
  6516     02A4  2AA6               	goto	l2237
  6517     02A5                     u1570:
  6518     02A5                     l2235:
  6519     02A5  1778               	bsf	___fladd@signs,6
  6520     02A6                     l2237:
  6521     02A6  3577               	lslf	___fladd@a+3,w
  6522     02A7  00F9               	movwf	___fladd@aexp
  6523     02A8                     l2239:
  6524     02A8  1FF6               	btfss	___fladd@a+2,7
  6525     02A9  2AAB               	goto	u1581
  6526     02AA  2AAC               	goto	u1580
  6527     02AB                     u1581:
  6528     02AB  2AAD               	goto	l2243
  6529     02AC                     u1580:
  6530     02AC                     l2241:
  6531     02AC  1479               	bsf	___fladd@aexp,0
  6532     02AD                     l2243:
  6533     02AD  0879               	movf	___fladd@aexp,w
  6534     02AE  1903               	btfsc	3,2
  6535     02AF  2AB1               	goto	u1591
  6536     02B0  2AB2               	goto	u1590
  6537     02B1                     u1591:
  6538     02B1  2AC2               	goto	l2253
  6539     02B2                     u1590:
  6540     02B2                     l2245:
  6541     02B2  0A79               	incf	___fladd@aexp,w
  6542     02B3  1D03               	btfss	3,2
  6543     02B4  2AB6               	goto	u1601
  6544     02B5  2AB7               	goto	u1600
  6545     02B6                     u1601:
  6546     02B6  2ABF               	goto	l2249
  6547     02B7                     u1600:
  6548     02B7                     l2247:
  6549     02B7  3000               	movlw	0
  6550     02B8  00F7               	movwf	___fladd@a+3
  6551     02B9  3000               	movlw	0
  6552     02BA  00F6               	movwf	___fladd@a+2
  6553     02BB  3000               	movlw	0
  6554     02BC  00F5               	movwf	___fladd@a+1
  6555     02BD  3000               	movlw	0
  6556     02BE  00F4               	movwf	___fladd@a
  6557     02BF                     l2249:
  6558     02BF  17F6               	bsf	___fladd@a+2,7
  6559     02C0                     l2251:
  6560     02C0  01F7               	clrf	___fladd@a+3
  6561     02C1  2ACA               	goto	l1060
  6562     02C2                     l2253:
  6563     02C2  3000               	movlw	0
  6564     02C3  00F7               	movwf	___fladd@a+3
  6565     02C4  3000               	movlw	0
  6566     02C5  00F6               	movwf	___fladd@a+2
  6567     02C6  3000               	movlw	0
  6568     02C7  00F5               	movwf	___fladd@a+1
  6569     02C8  3000               	movlw	0
  6570     02C9  00F4               	movwf	___fladd@a
  6571     02CA                     l1060:
  6572     02CA  087A               	movf	___fladd@bexp,w
  6573     02CB  0279               	subwf	___fladd@aexp,w
  6574     02CC  1803               	skipnc
  6575     02CD  2ACF               	goto	u1611
  6576     02CE  2AD0               	goto	u1610
  6577     02CF                     u1611:
  6578     02CF  2AF7               	goto	l2289
  6579     02D0                     u1610:
  6580     02D0                     l2255:
  6581     02D0  1F78               	btfss	___fladd@signs,6
  6582     02D1  2AD3               	goto	u1621
  6583     02D2  2AD4               	goto	u1620
  6584     02D3                     u1621:
  6585     02D3  2AD9               	goto	l2259
  6586     02D4                     u1620:
  6587     02D4                     l2257:
  6588     02D4  3080               	movlw	128
  6589     02D5  0020               	movlb	0	; select bank0
  6590     02D6  00A0               	movwf	??___fladd
  6591     02D7  0820               	movf	??___fladd,w
  6592     02D8  06F8               	xorwf	___fladd@signs,f
  6593     02D9                     l2259:
  6594     02D9  087A               	movf	___fladd@bexp,w
  6595     02DA  00FB               	movwf	___fladd@grs
  6596     02DB                     l2261:
  6597     02DB  0879               	movf	___fladd@aexp,w
  6598     02DC  00FA               	movwf	___fladd@bexp
  6599     02DD                     l2263:
  6600     02DD  087B               	movf	___fladd@grs,w
  6601     02DE  00F9               	movwf	___fladd@aexp
  6602     02DF                     l2265:
  6603     02DF  0870               	movf	___fladd@b,w
  6604     02E0  00FB               	movwf	___fladd@grs
  6605     02E1                     l2267:
  6606     02E1  0874               	movf	___fladd@a,w
  6607     02E2  00F0               	movwf	___fladd@b
  6608     02E3                     l2269:
  6609     02E3  087B               	movf	___fladd@grs,w
  6610     02E4  00F4               	movwf	___fladd@a
  6611     02E5                     l2271:
  6612     02E5  0871               	movf	___fladd@b+1,w
  6613     02E6  00FB               	movwf	___fladd@grs
  6614     02E7                     l2273:
  6615     02E7  0875               	movf	___fladd@a+1,w
  6616     02E8  00F1               	movwf	___fladd@b+1
  6617     02E9                     l2275:
  6618     02E9  087B               	movf	___fladd@grs,w
  6619     02EA  00F5               	movwf	___fladd@a+1
  6620     02EB                     l2277:
  6621     02EB  0872               	movf	___fladd@b+2,w
  6622     02EC  00FB               	movwf	___fladd@grs
  6623     02ED                     l2279:
  6624     02ED  0876               	movf	___fladd@a+2,w
  6625     02EE  00F2               	movwf	___fladd@b+2
  6626     02EF                     l2281:
  6627     02EF  087B               	movf	___fladd@grs,w
  6628     02F0  00F6               	movwf	___fladd@a+2
  6629     02F1                     l2283:
  6630     02F1  0873               	movf	___fladd@b+3,w
  6631     02F2  00FB               	movwf	___fladd@grs
  6632     02F3                     l2285:
  6633     02F3  0877               	movf	___fladd@a+3,w
  6634     02F4  00F3               	movwf	___fladd@b+3
  6635     02F5                     l2287:
  6636     02F5  087B               	movf	___fladd@grs,w
  6637     02F6  00F7               	movwf	___fladd@a+3
  6638     02F7                     l2289:
  6639     02F7  01FB               	clrf	___fladd@grs
  6640     02F8                     l2291:
  6641     02F8  0879               	movf	___fladd@aexp,w
  6642     02F9  0020               	movlb	0	; select bank0
  6643     02FA  00A0               	movwf	??___fladd
  6644     02FB  01A1               	clrf	??___fladd+1
  6645     02FC  0821               	movf	??___fladd+1,w
  6646     02FD  00A3               	movwf	??___fladd+3
  6647     02FE  087A               	movf	___fladd@bexp,w
  6648     02FF  0220               	subwf	??___fladd,w
  6649     0300  00A2               	movwf	??___fladd+2
  6650     0301  1C03               	skipc
  6651     0302  03A3               	decf	??___fladd+3,f
  6652     0303  0823               	movf	??___fladd+3,w
  6653     0304  3A80               	xorlw	128
  6654     0305  00A4               	movwf	??___fladd+4
  6655     0306  3080               	movlw	128
  6656     0307  0224               	subwf	??___fladd+4,w
  6657     0308  1D03               	skipz
  6658     0309  2B0C               	goto	u1635
  6659     030A  301A               	movlw	26
  6660     030B  0222               	subwf	??___fladd+2,w
  6661     030C                     u1635:
  6662     030C  1C03               	skipc
  6663     030D  2B0F               	goto	u1631
  6664     030E  2B10               	goto	u1630
  6665     030F                     u1631:
  6666     030F  2B42               	goto	l2307
  6667     0310                     u1630:
  6668     0310                     l2293:
  6669     0310  0873               	movf	___fladd@b+3,w
  6670     0311  0472               	iorwf	___fladd@b+2,w
  6671     0312  0471               	iorwf	___fladd@b+1,w
  6672     0313  0470               	iorwf	___fladd@b,w
  6673     0314  1D03               	skipz
  6674     0315  2B17               	goto	u1641
  6675     0316  2B19               	goto	u1640
  6676     0317                     u1641:
  6677     0317  3001               	movlw	1
  6678     0318  2B1A               	goto	u1650
  6679     0319                     u1640:
  6680     0319  3000               	movlw	0
  6681     031A                     u1650:
  6682     031A  00FB               	movwf	___fladd@grs
  6683     031B  3000               	movlw	0
  6684     031C  00F3               	movwf	___fladd@b+3
  6685     031D  3000               	movlw	0
  6686     031E  00F2               	movwf	___fladd@b+2
  6687     031F  3000               	movlw	0
  6688     0320  00F1               	movwf	___fladd@b+1
  6689     0321  3000               	movlw	0
  6690     0322  00F0               	movwf	___fladd@b
  6691     0323  0879               	movf	___fladd@aexp,w
  6692     0324  00FA               	movwf	___fladd@bexp
  6693     0325  2B48               	goto	l1064
  6694     0326                     l1066:
  6695     0326  1C7B               	btfss	___fladd@grs,0
  6696     0327  2B29               	goto	u1661
  6697     0328  2B2A               	goto	u1660
  6698     0329                     u1661:
  6699     0329  2B2E               	goto	l2297
  6700     032A                     u1660:
  6701     032A                     l2295:
  6702     032A  367B               	lsrf	___fladd@grs,w
  6703     032B  3801               	iorlw	1
  6704     032C  00FB               	movwf	___fladd@grs
  6705     032D  2B30               	goto	l2299
  6706     032E                     l2297:
  6707     032E  1003               	clrc
  6708     032F  0CFB               	rrf	___fladd@grs,f
  6709     0330                     l2299:
  6710     0330  1C70               	btfss	___fladd@b,0
  6711     0331  2B33               	goto	u1671
  6712     0332  2B34               	goto	u1670
  6713     0333                     u1671:
  6714     0333  2B35               	goto	l2303
  6715     0334                     u1670:
  6716     0334                     l2301:
  6717     0334  17FB               	bsf	___fladd@grs,7
  6718     0335                     l2303:
  6719     0335  3001               	movlw	1
  6720     0336  0020               	movlb	0	; select bank0
  6721     0337  00A0               	movwf	??___fladd
  6722     0338                     u1685:
  6723     0338  37F3               	asrf	___fladd@b+3,f
  6724     0339  0CF2               	rrf	___fladd@b+2,f
  6725     033A  0CF1               	rrf	___fladd@b+1,f
  6726     033B  0CF0               	rrf	___fladd@b,f
  6727     033C  0BA0               	decfsz	??___fladd& (0+127),f
  6728     033D  2B38               	goto	u1685
  6729     033E                     l2305:
  6730     033E  3001               	movlw	1
  6731     033F  00A0               	movwf	??___fladd
  6732     0340  0820               	movf	??___fladd,w
  6733     0341  07FA               	addwf	___fladd@bexp,f
  6734     0342                     l2307:
  6735     0342  0879               	movf	___fladd@aexp,w
  6736     0343  027A               	subwf	___fladd@bexp,w
  6737     0344  1C03               	skipc
  6738     0345  2B47               	goto	u1691
  6739     0346  2B48               	goto	u1690
  6740     0347                     u1691:
  6741     0347  2B26               	goto	l1066
  6742     0348                     u1690:
  6743     0348                     l1064:
  6744     0348  1B78               	btfsc	___fladd@signs,6
  6745     0349  2B4B               	goto	u1701
  6746     034A  2B4C               	goto	u1700
  6747     034B                     u1701:
  6748     034B  2B83               	goto	l2333
  6749     034C                     u1700:
  6750     034C                     l2309:
  6751     034C  087A               	movf	___fladd@bexp,w
  6752     034D  1D03               	btfss	3,2
  6753     034E  2B50               	goto	u1711
  6754     034F  2B51               	goto	u1710
  6755     0350                     u1711:
  6756     0350  2B5A               	goto	l2315
  6757     0351                     u1710:
  6758     0351                     l2311:
  6759     0351  3000               	movlw	0
  6760     0352  00F3               	movwf	?___fladd+3
  6761     0353  3000               	movlw	0
  6762     0354  00F2               	movwf	?___fladd+2
  6763     0355  3000               	movlw	0
  6764     0356  00F1               	movwf	?___fladd+1
  6765     0357  3000               	movlw	0
  6766     0358  00F0               	movwf	?___fladd
  6767     0359  2C80               	goto	l1073
  6768     035A                     l2315:
  6769     035A  0874               	movf	___fladd@a,w
  6770     035B  07F0               	addwf	___fladd@b,f
  6771     035C  0875               	movf	___fladd@a+1,w
  6772     035D  3DF1               	addwfc	___fladd@b+1,f
  6773     035E  0876               	movf	___fladd@a+2,w
  6774     035F  3DF2               	addwfc	___fladd@b+2,f
  6775     0360  0877               	movf	___fladd@a+3,w
  6776     0361  3DF3               	addwfc	___fladd@b+3,f
  6777     0362                     l2317:
  6778     0362  1C73               	btfss	___fladd@b+3,0
  6779     0363  2B65               	goto	u1721
  6780     0364  2B66               	goto	u1720
  6781     0365                     u1721:
  6782     0365  2C10               	goto	l2367
  6783     0366                     u1720:
  6784     0366                     l2319:
  6785     0366  1C7B               	btfss	___fladd@grs,0
  6786     0367  2B69               	goto	u1731
  6787     0368  2B6A               	goto	u1730
  6788     0369                     u1731:
  6789     0369  2B6E               	goto	l2323
  6790     036A                     u1730:
  6791     036A                     l2321:
  6792     036A  367B               	lsrf	___fladd@grs,w
  6793     036B  3801               	iorlw	1
  6794     036C  00FB               	movwf	___fladd@grs
  6795     036D  2B70               	goto	l2325
  6796     036E                     l2323:
  6797     036E  1003               	clrc
  6798     036F  0CFB               	rrf	___fladd@grs,f
  6799     0370                     l2325:
  6800     0370  1C70               	btfss	___fladd@b,0
  6801     0371  2B73               	goto	u1741
  6802     0372  2B74               	goto	u1740
  6803     0373                     u1741:
  6804     0373  2B75               	goto	l2329
  6805     0374                     u1740:
  6806     0374                     l2327:
  6807     0374  17FB               	bsf	___fladd@grs,7
  6808     0375                     l2329:
  6809     0375  3001               	movlw	1
  6810     0376  0020               	movlb	0	; select bank0
  6811     0377  00A0               	movwf	??___fladd
  6812     0378                     u1755:
  6813     0378  37F3               	asrf	___fladd@b+3,f
  6814     0379  0CF2               	rrf	___fladd@b+2,f
  6815     037A  0CF1               	rrf	___fladd@b+1,f
  6816     037B  0CF0               	rrf	___fladd@b,f
  6817     037C  0BA0               	decfsz	??___fladd& (0+127),f
  6818     037D  2B78               	goto	u1755
  6819     037E                     l2331:
  6820     037E  3001               	movlw	1
  6821     037F  00A0               	movwf	??___fladd
  6822     0380  0820               	movf	??___fladd,w
  6823     0381  07FA               	addwf	___fladd@bexp,f
  6824     0382  2C10               	goto	l2367
  6825     0383                     l2333:
  6826     0383  0873               	movf	___fladd@b+3,w
  6827     0384  3A80               	xorlw	128
  6828     0385  0020               	movlb	0	; select bank0
  6829     0386  00A0               	movwf	??___fladd
  6830     0387  0877               	movf	___fladd@a+3,w
  6831     0388  3A80               	xorlw	128
  6832     0389  0220               	subwf	??___fladd,w
  6833     038A  1D03               	skipz
  6834     038B  2B96               	goto	u1763
  6835     038C  0876               	movf	___fladd@a+2,w
  6836     038D  0272               	subwf	___fladd@b+2,w
  6837     038E  1D03               	skipz
  6838     038F  2B96               	goto	u1763
  6839     0390  0875               	movf	___fladd@a+1,w
  6840     0391  0271               	subwf	___fladd@b+1,w
  6841     0392  1D03               	skipz
  6842     0393  2B96               	goto	u1763
  6843     0394  0874               	movf	___fladd@a,w
  6844     0395  0270               	subwf	___fladd@b,w
  6845     0396                     u1763:
  6846     0396  1803               	skipnc
  6847     0397  2B99               	goto	u1761
  6848     0398  2B9A               	goto	u1760
  6849     0399                     u1761:
  6850     0399  2BD2               	goto	l2343
  6851     039A                     u1760:
  6852     039A                     l2335:
  6853     039A  30FF               	movlw	255
  6854     039B  00A0               	movwf	??___fladd
  6855     039C  30FF               	movlw	255
  6856     039D  00A1               	movwf	??___fladd+1
  6857     039E  30FF               	movlw	255
  6858     039F  00A2               	movwf	??___fladd+2
  6859     03A0  30FF               	movlw	255
  6860     03A1  00A3               	movwf	??___fladd+3
  6861     03A2  0870               	movf	___fladd@b,w
  6862     03A3  0274               	subwf	___fladd@a,w
  6863     03A4  00A4               	movwf	??___fladd+4
  6864     03A5  0871               	movf	___fladd@b+1,w
  6865     03A6  3B75               	subwfb	___fladd@a+1,w
  6866     03A7  00A5               	movwf	??___fladd+5
  6867     03A8  0872               	movf	___fladd@b+2,w
  6868     03A9  3B76               	subwfb	___fladd@a+2,w
  6869     03AA  00A6               	movwf	??___fladd+6
  6870     03AB  0873               	movf	___fladd@b+3,w
  6871     03AC  3B77               	subwfb	___fladd@a+3,w
  6872     03AD  00A7               	movwf	??___fladd+7
  6873     03AE  0824               	movf	??___fladd+4,w
  6874     03AF  07A0               	addwf	??___fladd,f
  6875     03B0  0825               	movf	??___fladd+5,w
  6876     03B1  3DA1               	addwfc	??___fladd+1,f
  6877     03B2  0826               	movf	??___fladd+6,w
  6878     03B3  3DA2               	addwfc	??___fladd+2,f
  6879     03B4  0827               	movf	??___fladd+7,w
  6880     03B5  3DA3               	addwfc	??___fladd+3,f
  6881     03B6  0823               	movf	??___fladd+3,w
  6882     03B7  00F3               	movwf	___fladd@b+3
  6883     03B8  0822               	movf	??___fladd+2,w
  6884     03B9  00F2               	movwf	___fladd@b+2
  6885     03BA  0821               	movf	??___fladd+1,w
  6886     03BB  00F1               	movwf	___fladd@b+1
  6887     03BC  0820               	movf	??___fladd,w
  6888     03BD  00F0               	movwf	___fladd@b
  6889     03BE                     l2337:
  6890     03BE  3080               	movlw	128
  6891     03BF  00A0               	movwf	??___fladd
  6892     03C0  0820               	movf	??___fladd,w
  6893     03C1  06F8               	xorwf	___fladd@signs,f
  6894     03C2  09FB               	comf	___fladd@grs,f
  6895     03C3  0AFB               	incf	___fladd@grs,f
  6896     03C4                     l2339:
  6897     03C4  087B               	movf	___fladd@grs,w
  6898     03C5  1D03               	btfss	3,2
  6899     03C6  2BC8               	goto	u1771
  6900     03C7  2BC9               	goto	u1770
  6901     03C8                     u1771:
  6902     03C8  2BDA               	goto	l1081
  6903     03C9                     u1770:
  6904     03C9                     l2341:
  6905     03C9  3001               	movlw	1
  6906     03CA  07F0               	addwf	___fladd@b,f
  6907     03CB  3000               	movlw	0
  6908     03CC  3DF1               	addwfc	___fladd@b+1,f
  6909     03CD  3000               	movlw	0
  6910     03CE  3DF2               	addwfc	___fladd@b+2,f
  6911     03CF  3000               	movlw	0
  6912     03D0  3DF3               	addwfc	___fladd@b+3,f
  6913     03D1  2BDA               	goto	l1081
  6914     03D2                     l2343:
  6915     03D2  0874               	movf	___fladd@a,w
  6916     03D3  02F0               	subwf	___fladd@b,f
  6917     03D4  0875               	movf	___fladd@a+1,w
  6918     03D5  3BF1               	subwfb	___fladd@b+1,f
  6919     03D6  0876               	movf	___fladd@a+2,w
  6920     03D7  3BF2               	subwfb	___fladd@b+2,f
  6921     03D8  0877               	movf	___fladd@a+3,w
  6922     03D9  3BF3               	subwfb	___fladd@b+3,f
  6923     03DA                     l1081:
  6924     03DA  0873               	movf	___fladd@b+3,w
  6925     03DB  0472               	iorwf	___fladd@b+2,w
  6926     03DC  0471               	iorwf	___fladd@b+1,w
  6927     03DD  0470               	iorwf	___fladd@b,w
  6928     03DE  1D03               	skipz
  6929     03DF  2BE1               	goto	u1781
  6930     03E0  2BE2               	goto	u1780
  6931     03E1                     u1781:
  6932     03E1  2C0C               	goto	l2365
  6933     03E2                     u1780:
  6934     03E2                     l2345:
  6935     03E2  087B               	movf	___fladd@grs,w
  6936     03E3  1D03               	btfss	3,2
  6937     03E4  2BE6               	goto	u1791
  6938     03E5  2BE7               	goto	u1790
  6939     03E6                     u1791:
  6940     03E6  2C0C               	goto	l2365
  6941     03E7                     u1790:
  6942     03E7                     l2347:
  6943     03E7  3000               	movlw	0
  6944     03E8  00F3               	movwf	?___fladd+3
  6945     03E9  3000               	movlw	0
  6946     03EA  00F2               	movwf	?___fladd+2
  6947     03EB  3000               	movlw	0
  6948     03EC  00F1               	movwf	?___fladd+1
  6949     03ED  3000               	movlw	0
  6950     03EE  00F0               	movwf	?___fladd
  6951     03EF  2C80               	goto	l1073
  6952     03F0                     l2351:
  6953     03F0  3001               	movlw	1
  6954     03F1                     u1805:
  6955     03F1  35F0               	lslf	___fladd@b,f
  6956     03F2  0DF1               	rlf	___fladd@b+1,f
  6957     03F3  0DF2               	rlf	___fladd@b+2,f
  6958     03F4  0DF3               	rlf	___fladd@b+3,f
  6959     03F5  0B89               	decfsz	9,f
  6960     03F6  2BF1               	goto	u1805
  6961     03F7                     l2353:
  6962     03F7  1FFB               	btfss	___fladd@grs,7
  6963     03F8  2BFA               	goto	u1811
  6964     03F9  2BFB               	goto	u1810
  6965     03FA                     u1811:
  6966     03FA  2BFC               	goto	l1085
  6967     03FB                     u1810:
  6968     03FB                     l2355:
  6969     03FB  1470               	bsf	___fladd@b,0
  6970     03FC                     l1085:
  6971     03FC  1C7B               	btfss	___fladd@grs,0
  6972     03FD  2BFF               	goto	u1821
  6973     03FE  2C00               	goto	u1820
  6974     03FF                     u1821:
  6975     03FF  2C03               	goto	l2359
  6976     0400                     u1820:
  6977     0400                     l2357:
  6978     0400  1403               	setc
  6979     0401  0DFB               	rlf	___fladd@grs,f
  6980     0402  2C05               	goto	l2361
  6981     0403                     l2359:
  6982     0403  1003               	clrc
  6983     0404  0DFB               	rlf	___fladd@grs,f
  6984     0405                     l2361:
  6985     0405  087A               	movf	___fladd@bexp,w
  6986     0406  1903               	btfsc	3,2
  6987     0407  2C09               	goto	u1831
  6988     0408  2C0A               	goto	u1830
  6989     0409                     u1831:
  6990     0409  2C0C               	goto	l2365
  6991     040A                     u1830:
  6992     040A                     l2363:
  6993     040A  3001               	movlw	1
  6994     040B  02FA               	subwf	___fladd@bexp,f
  6995     040C                     l2365:
  6996     040C  1FF2               	btfss	___fladd@b+2,7
  6997     040D  2C0F               	goto	u1841
  6998     040E  2C10               	goto	u1840
  6999     040F                     u1841:
  7000     040F  2BF0               	goto	l2351
  7001     0410                     u1840:
  7002     0410                     l2367:
  7003     0410  01F9               	clrf	___fladd@aexp
  7004     0411                     l2369:
  7005     0411  1FFB               	btfss	___fladd@grs,7
  7006     0412  2C14               	goto	u1851
  7007     0413  2C15               	goto	u1850
  7008     0414                     u1851:
  7009     0414  2C23               	goto	l2377
  7010     0415                     u1850:
  7011     0415                     l2371:
  7012     0415  087B               	movf	___fladd@grs,w
  7013     0416  397F               	andlw	127
  7014     0417  1903               	btfsc	3,2
  7015     0418  2C1A               	goto	u1861
  7016     0419  2C1B               	goto	u1860
  7017     041A                     u1861:
  7018     041A  2C1E               	goto	l1091
  7019     041B                     u1860:
  7020     041B                     l2373:
  7021     041B  01F9               	clrf	___fladd@aexp
  7022     041C  0AF9               	incf	___fladd@aexp,f
  7023     041D  2C23               	goto	l2377
  7024     041E                     l1091:
  7025     041E  1C70               	btfss	___fladd@b,0
  7026     041F  2C21               	goto	u1871
  7027     0420  2C22               	goto	u1870
  7028     0421                     u1871:
  7029     0421  2C23               	goto	l2377
  7030     0422                     u1870:
  7031     0422  2C1B               	goto	l2373
  7032     0423                     l2377:
  7033     0423  0879               	movf	___fladd@aexp,w
  7034     0424  1903               	btfsc	3,2
  7035     0425  2C27               	goto	u1881
  7036     0426  2C28               	goto	u1880
  7037     0427                     u1881:
  7038     0427  2C56               	goto	l1094
  7039     0428                     u1880:
  7040     0428                     l2379:
  7041     0428  3001               	movlw	1
  7042     0429  07F0               	addwf	___fladd@b,f
  7043     042A  3000               	movlw	0
  7044     042B  3DF1               	addwfc	___fladd@b+1,f
  7045     042C  3000               	movlw	0
  7046     042D  3DF2               	addwfc	___fladd@b+2,f
  7047     042E  3000               	movlw	0
  7048     042F  3DF3               	addwfc	___fladd@b+3,f
  7049     0430                     l2381:
  7050     0430  1C73               	btfss	___fladd@b+3,0
  7051     0431  2C33               	goto	u1891
  7052     0432  2C34               	goto	u1890
  7053     0433                     u1891:
  7054     0433  2C56               	goto	l1094
  7055     0434                     u1890:
  7056     0434                     l2383:
  7057     0434  0870               	movf	___fladd@b,w
  7058     0435  0020               	movlb	0	; select bank0
  7059     0436  00A0               	movwf	??___fladd
  7060     0437  0871               	movf	___fladd@b+1,w
  7061     0438  00A1               	movwf	??___fladd+1
  7062     0439  0872               	movf	___fladd@b+2,w
  7063     043A  00A2               	movwf	??___fladd+2
  7064     043B  0873               	movf	___fladd@b+3,w
  7065     043C  00A3               	movwf	??___fladd+3
  7066     043D  3001               	movlw	1
  7067     043E  00A4               	movwf	??___fladd+4
  7068     043F                     u1905:
  7069     043F  37A3               	asrf	??___fladd+3,f
  7070     0440  0CA2               	rrf	??___fladd+2,f
  7071     0441  0CA1               	rrf	??___fladd+1,f
  7072     0442  0CA0               	rrf	??___fladd,f
  7073     0443                     u1900:
  7074     0443  0BA4               	decfsz	??___fladd+4,f
  7075     0444  2C3F               	goto	u1905
  7076     0445  0823               	movf	??___fladd+3,w
  7077     0446  00F3               	movwf	___fladd@b+3
  7078     0447  0822               	movf	??___fladd+2,w
  7079     0448  00F2               	movwf	___fladd@b+2
  7080     0449  0821               	movf	??___fladd+1,w
  7081     044A  00F1               	movwf	___fladd@b+1
  7082     044B  0820               	movf	??___fladd,w
  7083     044C  00F0               	movwf	___fladd@b
  7084     044D  0A7A               	incf	___fladd@bexp,w
  7085     044E  1903               	btfsc	3,2
  7086     044F  2C51               	goto	u1911
  7087     0450  2C52               	goto	u1910
  7088     0451                     u1911:
  7089     0451  2C56               	goto	l1094
  7090     0452                     u1910:
  7091     0452                     l2385:
  7092     0452  3001               	movlw	1
  7093     0453  00A0               	movwf	??___fladd
  7094     0454  0820               	movf	??___fladd,w
  7095     0455  07FA               	addwf	___fladd@bexp,f
  7096     0456                     l1094:
  7097     0456  0A7A               	incf	___fladd@bexp,w
  7098     0457  1903               	btfsc	3,2
  7099     0458  2C5A               	goto	u1921
  7100     0459  2C5B               	goto	u1920
  7101     045A                     u1921:
  7102     045A  2C60               	goto	l2389
  7103     045B                     u1920:
  7104     045B                     l2387:
  7105     045B  087A               	movf	___fladd@bexp,w
  7106     045C  1D03               	btfss	3,2
  7107     045D  2C5F               	goto	u1931
  7108     045E  2C60               	goto	u1930
  7109     045F                     u1931:
  7110     045F  2C6E               	goto	l2395
  7111     0460                     u1930:
  7112     0460                     l2389:
  7113     0460  3000               	movlw	0
  7114     0461  00F3               	movwf	___fladd@b+3
  7115     0462  3000               	movlw	0
  7116     0463  00F2               	movwf	___fladd@b+2
  7117     0464  3000               	movlw	0
  7118     0465  00F1               	movwf	___fladd@b+1
  7119     0466  3000               	movlw	0
  7120     0467  00F0               	movwf	___fladd@b
  7121     0468                     l2391:
  7122     0468  087A               	movf	___fladd@bexp,w
  7123     0469  1D03               	btfss	3,2
  7124     046A  2C6C               	goto	u1941
  7125     046B  2C6D               	goto	u1940
  7126     046C                     u1941:
  7127     046C  2C6E               	goto	l2395
  7128     046D                     u1940:
  7129     046D                     l2393:
  7130     046D  01F8               	clrf	___fladd@signs
  7131     046E                     l2395:
  7132     046E  1C7A               	btfss	___fladd@bexp,0
  7133     046F  2C71               	goto	u1951
  7134     0470  2C72               	goto	u1950
  7135     0471                     u1951:
  7136     0471  2C74               	goto	l2399
  7137     0472                     u1950:
  7138     0472                     l2397:
  7139     0472  17F2               	bsf	___fladd@b+2,7
  7140     0473  2C79               	goto	l1102
  7141     0474                     l2399:
  7142     0474  307F               	movlw	127
  7143     0475  0020               	movlb	0	; select bank0
  7144     0476  00A0               	movwf	??___fladd
  7145     0477  0820               	movf	??___fladd,w
  7146     0478  05F2               	andwf	___fladd@b+2,f
  7147     0479                     l1102:
  7148     0479  367A               	lsrf	___fladd@bexp,w
  7149     047A  00F3               	movwf	___fladd@b+3
  7150     047B                     l2401:
  7151     047B  1FF8               	btfss	___fladd@signs,7
  7152     047C  2C7E               	goto	u1961
  7153     047D  2C7F               	goto	u1960
  7154     047E                     u1961:
  7155     047E  2C80               	goto	l1103
  7156     047F                     u1960:
  7157     047F                     l2403:
  7158     047F  17F3               	bsf	___fladd@b+3,7
  7159     0480                     l1103:
  7160     0480                     l1073:
  7161     0480  0008               	return
  7162     0481                     __end_of___fladd:
  7163                           
  7164                           	psect	text35
  7165     003A                     __ptext35:	
  7166 ;; *************** function ___flmul *****************
  7167 ;; Defined at:
  7168 ;;		line 8 in file "C:\Program Files\Microchip\xc8\v2.40\pic\sources\c99\common\sprcmul.c"
  7169 ;; Parameters:    Size  Location     Type
  7170 ;;  b               4   16[BANK0 ] unsigned char 
  7171 ;;  a               4   20[BANK0 ] unsigned char 
  7172 ;; Auto vars:     Size  Location     Type
  7173 ;;  prod            4   36[BANK0 ] struct .
  7174 ;;  grs             4   30[BANK0 ] unsigned long 
  7175 ;;  temp            2   40[BANK0 ] struct .
  7176 ;;  bexp            1   35[BANK0 ] unsigned char 
  7177 ;;  aexp            1   34[BANK0 ] unsigned char 
  7178 ;;  sign            1   29[BANK0 ] unsigned char 
  7179 ;; Return value:  Size  Location     Type
  7180 ;;                  4   16[BANK0 ] unsigned char 
  7181 ;; Registers used:
  7182 ;;		wreg, status,2, status,0, pclath, cstack
  7183 ;; Tracked objects:
  7184 ;;		On entry : 0/0
  7185 ;;		On exit  : 0/0
  7186 ;;		Unchanged: 0/0
  7187 ;; Data sizes:     COMMON   BANK0   BANK1   BANK2   BANK3   BANK4
  7188 ;;      Params:         0       8       0       0       0       0
  7189 ;;      Locals:         0      13       0       0       0       0
  7190 ;;      Temps:          0       5       0       0       0       0
  7191 ;;      Totals:         0      26       0       0       0       0
  7192 ;;Total ram usage:       26 bytes
  7193 ;; Hardware stack levels used: 1
  7194 ;; Hardware stack levels required when called: 4
  7195 ;; This function calls:
  7196 ;;		__Umul8_16
  7197 ;; This function is called by:
  7198 ;;		_ADC2Display
  7199 ;; This function uses a non-reentrant model
  7200 ;;
  7201                           
  7202     003A                     ___flmul:	
  7203                           ;psect for function ___flmul
  7204                           
  7205     003A                     l2675:	
  7206                           ;incstack = 0
  7207                           ; Regs used in ___flmul: [wreg+status,2+status,0+pclath+cstack]
  7208                           
  7209     003A  0020               	movlb	0	; select bank0
  7210     003B  0833               	movf	___flmul@b+3,w
  7211     003C  3980               	andlw	128
  7212     003D  00BD               	movwf	___flmul@sign
  7213     003E                     l2677:
  7214     003E  3533               	lslf	___flmul@b+3,w
  7215     003F  00C3               	movwf	___flmul@bexp
  7216     0040                     l2679:
  7217     0040  1FB2               	btfss	___flmul@b+2,7
  7218     0041  2843               	goto	u2401
  7219     0042  2844               	goto	u2400
  7220     0043                     u2401:
  7221     0043  2845               	goto	l2683
  7222     0044                     u2400:
  7223     0044                     l2681:
  7224     0044  1443               	bsf	___flmul@bexp,0
  7225     0045                     l2683:
  7226     0045  0843               	movf	___flmul@bexp,w
  7227     0046  1903               	btfsc	3,2
  7228     0047  2849               	goto	u2411
  7229     0048  284A               	goto	u2410
  7230     0049                     u2411:
  7231     0049  2859               	goto	l2691
  7232     004A                     u2410:
  7233     004A                     l2685:
  7234     004A  0A43               	incf	___flmul@bexp,w
  7235     004B  1D03               	btfss	3,2
  7236     004C  284E               	goto	u2421
  7237     004D  284F               	goto	u2420
  7238     004E                     u2421:
  7239     004E  2857               	goto	l2689
  7240     004F                     u2420:
  7241     004F                     l2687:
  7242     004F  3000               	movlw	0
  7243     0050  00B3               	movwf	___flmul@b+3
  7244     0051  3000               	movlw	0
  7245     0052  00B2               	movwf	___flmul@b+2
  7246     0053  3000               	movlw	0
  7247     0054  00B1               	movwf	___flmul@b+1
  7248     0055  3000               	movlw	0
  7249     0056  00B0               	movwf	___flmul@b
  7250     0057                     l2689:
  7251     0057  17B2               	bsf	___flmul@b+2,7
  7252     0058  2861               	goto	l2693
  7253     0059                     l2691:
  7254     0059  3000               	movlw	0
  7255     005A  00B3               	movwf	___flmul@b+3
  7256     005B  3000               	movlw	0
  7257     005C  00B2               	movwf	___flmul@b+2
  7258     005D  3000               	movlw	0
  7259     005E  00B1               	movwf	___flmul@b+1
  7260     005F  3000               	movlw	0
  7261     0060  00B0               	movwf	___flmul@b
  7262     0061                     l2693:
  7263     0061  0837               	movf	___flmul@a+3,w
  7264     0062  3980               	andlw	128
  7265     0063  00B8               	movwf	??___flmul
  7266     0064  0838               	movf	??___flmul,w
  7267     0065  06BD               	xorwf	___flmul@sign,f
  7268     0066                     l2695:
  7269     0066  3537               	lslf	___flmul@a+3,w
  7270     0067  00C2               	movwf	___flmul@aexp
  7271     0068                     l2697:
  7272     0068  1FB6               	btfss	___flmul@a+2,7
  7273     0069  286B               	goto	u2431
  7274     006A  286C               	goto	u2430
  7275     006B                     u2431:
  7276     006B  286D               	goto	l2701
  7277     006C                     u2430:
  7278     006C                     l2699:
  7279     006C  1442               	bsf	___flmul@aexp,0
  7280     006D                     l2701:
  7281     006D  0842               	movf	___flmul@aexp,w
  7282     006E  1903               	btfsc	3,2
  7283     006F  2871               	goto	u2441
  7284     0070  2872               	goto	u2440
  7285     0071                     u2441:
  7286     0071  2881               	goto	l2709
  7287     0072                     u2440:
  7288     0072                     l2703:
  7289     0072  0A42               	incf	___flmul@aexp,w
  7290     0073  1D03               	btfss	3,2
  7291     0074  2876               	goto	u2451
  7292     0075  2877               	goto	u2450
  7293     0076                     u2451:
  7294     0076  287F               	goto	l2707
  7295     0077                     u2450:
  7296     0077                     l2705:
  7297     0077  3000               	movlw	0
  7298     0078  00B7               	movwf	___flmul@a+3
  7299     0079  3000               	movlw	0
  7300     007A  00B6               	movwf	___flmul@a+2
  7301     007B  3000               	movlw	0
  7302     007C  00B5               	movwf	___flmul@a+1
  7303     007D  3000               	movlw	0
  7304     007E  00B4               	movwf	___flmul@a
  7305     007F                     l2707:
  7306     007F  17B6               	bsf	___flmul@a+2,7
  7307     0080  2889               	goto	l2711
  7308     0081                     l2709:
  7309     0081  3000               	movlw	0
  7310     0082  00B7               	movwf	___flmul@a+3
  7311     0083  3000               	movlw	0
  7312     0084  00B6               	movwf	___flmul@a+2
  7313     0085  3000               	movlw	0
  7314     0086  00B5               	movwf	___flmul@a+1
  7315     0087  3000               	movlw	0
  7316     0088  00B4               	movwf	___flmul@a
  7317     0089                     l2711:
  7318     0089  0842               	movf	___flmul@aexp,w
  7319     008A  1903               	btfsc	3,2
  7320     008B  288D               	goto	u2461
  7321     008C  288E               	goto	u2460
  7322     008D                     u2461:
  7323     008D  2893               	goto	l2715
  7324     008E                     u2460:
  7325     008E                     l2713:
  7326     008E  0843               	movf	___flmul@bexp,w
  7327     008F  1D03               	btfss	3,2
  7328     0090  2892               	goto	u2471
  7329     0091  2893               	goto	u2470
  7330     0092                     u2471:
  7331     0092  289C               	goto	l2719
  7332     0093                     u2470:
  7333     0093                     l2715:
  7334     0093  3000               	movlw	0
  7335     0094  00B3               	movwf	?___flmul+3
  7336     0095  3000               	movlw	0
  7337     0096  00B2               	movwf	?___flmul+2
  7338     0097  3000               	movlw	0
  7339     0098  00B1               	movwf	?___flmul+1
  7340     0099  3000               	movlw	0
  7341     009A  00B0               	movwf	?___flmul
  7342     009B  2A74               	goto	l1156
  7343     009C                     l2719:
  7344     009C  0830               	movf	___flmul@b,w
  7345     009D  00F0               	movwf	__Umul8_16@multiplicand
  7346     009E  0836               	movf	___flmul@a+2,w
  7347     009F  318C  24A6  3180   	fcall	__Umul8_16
  7348     00A2  0871               	movf	?__Umul8_16+1,w
  7349     00A3  0020               	movlb	0	; select bank0
  7350     00A4  00C9               	movwf	___flmul@temp+1
  7351     00A5  0870               	movf	?__Umul8_16,w
  7352     00A6  00C8               	movwf	___flmul@temp
  7353     00A7                     l2721:
  7354     00A7  0848               	movf	___flmul@temp,w
  7355     00A8  00B8               	movwf	??___flmul
  7356     00A9  01B9               	clrf	??___flmul+1
  7357     00AA  01BA               	clrf	??___flmul+2
  7358     00AB  01BB               	clrf	??___flmul+3
  7359     00AC  083B               	movf	??___flmul+3,w
  7360     00AD  00C1               	movwf	___flmul@grs+3
  7361     00AE  083A               	movf	??___flmul+2,w
  7362     00AF  00C0               	movwf	___flmul@grs+2
  7363     00B0  0839               	movf	??___flmul+1,w
  7364     00B1  00BF               	movwf	___flmul@grs+1
  7365     00B2  0838               	movf	??___flmul,w
  7366     00B3  00BE               	movwf	___flmul@grs
  7367     00B4                     l2723:
  7368     00B4  0849               	movf	___flmul@temp+1,w
  7369     00B5  00B8               	movwf	??___flmul
  7370     00B6  01B9               	clrf	??___flmul+1
  7371     00B7  01BA               	clrf	??___flmul+2
  7372     00B8  01BB               	clrf	??___flmul+3
  7373     00B9  083B               	movf	??___flmul+3,w
  7374     00BA  00C7               	movwf	___flmul@prod+3
  7375     00BB  083A               	movf	??___flmul+2,w
  7376     00BC  00C6               	movwf	___flmul@prod+2
  7377     00BD  0839               	movf	??___flmul+1,w
  7378     00BE  00C5               	movwf	___flmul@prod+1
  7379     00BF  0838               	movf	??___flmul,w
  7380     00C0  00C4               	movwf	___flmul@prod
  7381     00C1  0831               	movf	___flmul@b+1,w
  7382     00C2  00F0               	movwf	__Umul8_16@multiplicand
  7383     00C3  0835               	movf	___flmul@a+1,w
  7384     00C4  318C  24A6  3180   	fcall	__Umul8_16
  7385     00C7  0871               	movf	?__Umul8_16+1,w
  7386     00C8  0020               	movlb	0	; select bank0
  7387     00C9  00C9               	movwf	___flmul@temp+1
  7388     00CA  0870               	movf	?__Umul8_16,w
  7389     00CB  00C8               	movwf	___flmul@temp
  7390     00CC                     l2725:
  7391     00CC  0848               	movf	___flmul@temp,w
  7392     00CD  00B8               	movwf	??___flmul
  7393     00CE  01B9               	clrf	??___flmul+1
  7394     00CF  01BA               	clrf	??___flmul+2
  7395     00D0  01BB               	clrf	??___flmul+3
  7396     00D1  0838               	movf	??___flmul,w
  7397     00D2  07BE               	addwf	___flmul@grs,f
  7398     00D3  0839               	movf	??___flmul+1,w
  7399     00D4  3DBF               	addwfc	___flmul@grs+1,f
  7400     00D5  083A               	movf	??___flmul+2,w
  7401     00D6  3DC0               	addwfc	___flmul@grs+2,f
  7402     00D7  083B               	movf	??___flmul+3,w
  7403     00D8  3DC1               	addwfc	___flmul@grs+3,f
  7404     00D9                     l2727:
  7405     00D9  0849               	movf	___flmul@temp+1,w
  7406     00DA  00B8               	movwf	??___flmul
  7407     00DB  01B9               	clrf	??___flmul+1
  7408     00DC  01BA               	clrf	??___flmul+2
  7409     00DD  01BB               	clrf	??___flmul+3
  7410     00DE  0838               	movf	??___flmul,w
  7411     00DF  07C4               	addwf	___flmul@prod,f
  7412     00E0  0839               	movf	??___flmul+1,w
  7413     00E1  3DC5               	addwfc	___flmul@prod+1,f
  7414     00E2  083A               	movf	??___flmul+2,w
  7415     00E3  3DC6               	addwfc	___flmul@prod+2,f
  7416     00E4  083B               	movf	??___flmul+3,w
  7417     00E5  3DC7               	addwfc	___flmul@prod+3,f
  7418     00E6  0832               	movf	___flmul@b+2,w
  7419     00E7  00F0               	movwf	__Umul8_16@multiplicand
  7420     00E8  0834               	movf	___flmul@a,w
  7421     00E9  318C  24A6  3180   	fcall	__Umul8_16
  7422     00EC  0871               	movf	?__Umul8_16+1,w
  7423     00ED  0020               	movlb	0	; select bank0
  7424     00EE  00C9               	movwf	___flmul@temp+1
  7425     00EF  0870               	movf	?__Umul8_16,w
  7426     00F0  00C8               	movwf	___flmul@temp
  7427     00F1                     l2729:
  7428     00F1  0848               	movf	___flmul@temp,w
  7429     00F2  00B8               	movwf	??___flmul
  7430     00F3  01B9               	clrf	??___flmul+1
  7431     00F4  01BA               	clrf	??___flmul+2
  7432     00F5  01BB               	clrf	??___flmul+3
  7433     00F6  0838               	movf	??___flmul,w
  7434     00F7  07BE               	addwf	___flmul@grs,f
  7435     00F8  0839               	movf	??___flmul+1,w
  7436     00F9  3DBF               	addwfc	___flmul@grs+1,f
  7437     00FA  083A               	movf	??___flmul+2,w
  7438     00FB  3DC0               	addwfc	___flmul@grs+2,f
  7439     00FC  083B               	movf	??___flmul+3,w
  7440     00FD  3DC1               	addwfc	___flmul@grs+3,f
  7441     00FE                     l2731:
  7442     00FE  0849               	movf	___flmul@temp+1,w
  7443     00FF  00B8               	movwf	??___flmul
  7444     0100  01B9               	clrf	??___flmul+1
  7445     0101  01BA               	clrf	??___flmul+2
  7446     0102  01BB               	clrf	??___flmul+3
  7447     0103  0838               	movf	??___flmul,w
  7448     0104  07C4               	addwf	___flmul@prod,f
  7449     0105  0839               	movf	??___flmul+1,w
  7450     0106  3DC5               	addwfc	___flmul@prod+1,f
  7451     0107  083A               	movf	??___flmul+2,w
  7452     0108  3DC6               	addwfc	___flmul@prod+2,f
  7453     0109  083B               	movf	??___flmul+3,w
  7454     010A  3DC7               	addwfc	___flmul@prod+3,f
  7455     010B                     l2733:
  7456     010B  3008               	movlw	8
  7457     010C                     u2485:
  7458     010C  35BE               	lslf	___flmul@grs,f
  7459     010D  0DBF               	rlf	___flmul@grs+1,f
  7460     010E  0DC0               	rlf	___flmul@grs+2,f
  7461     010F  0DC1               	rlf	___flmul@grs+3,f
  7462     0110  0B89               	decfsz	9,f
  7463     0111  290C               	goto	u2485
  7464     0112                     l2735:
  7465     0112  0831               	movf	___flmul@b+1,w
  7466     0113  00F0               	movwf	__Umul8_16@multiplicand
  7467     0114  0834               	movf	___flmul@a,w
  7468     0115  318C  24A6  3180   	fcall	__Umul8_16
  7469     0118  0871               	movf	?__Umul8_16+1,w
  7470     0119  0020               	movlb	0	; select bank0
  7471     011A  00C9               	movwf	___flmul@temp+1
  7472     011B  0870               	movf	?__Umul8_16,w
  7473     011C  00C8               	movwf	___flmul@temp
  7474     011D                     l2737:
  7475     011D  0848               	movf	___flmul@temp,w
  7476     011E  07BE               	addwf	___flmul@grs,f
  7477     011F  0849               	movf	___flmul@temp+1,w
  7478     0120  3DBF               	addwfc	___flmul@grs+1,f
  7479     0121  3000               	movlw	0
  7480     0122  3DC0               	addwfc	___flmul@grs+2,f
  7481     0123  3DC1               	addwfc	___flmul@grs+3,f
  7482     0124                     l2739:
  7483     0124  0830               	movf	___flmul@b,w
  7484     0125  00F0               	movwf	__Umul8_16@multiplicand
  7485     0126  0835               	movf	___flmul@a+1,w
  7486     0127  318C  24A6  3180   	fcall	__Umul8_16
  7487     012A  0871               	movf	?__Umul8_16+1,w
  7488     012B  0020               	movlb	0	; select bank0
  7489     012C  00C9               	movwf	___flmul@temp+1
  7490     012D  0870               	movf	?__Umul8_16,w
  7491     012E  00C8               	movwf	___flmul@temp
  7492     012F                     l2741:
  7493     012F  0848               	movf	___flmul@temp,w
  7494     0130  07BE               	addwf	___flmul@grs,f
  7495     0131  0849               	movf	___flmul@temp+1,w
  7496     0132  3DBF               	addwfc	___flmul@grs+1,f
  7497     0133  3000               	movlw	0
  7498     0134  3DC0               	addwfc	___flmul@grs+2,f
  7499     0135  3DC1               	addwfc	___flmul@grs+3,f
  7500     0136                     l2743:
  7501     0136  3008               	movlw	8
  7502     0137                     u2495:
  7503     0137  35BE               	lslf	___flmul@grs,f
  7504     0138  0DBF               	rlf	___flmul@grs+1,f
  7505     0139  0DC0               	rlf	___flmul@grs+2,f
  7506     013A  0DC1               	rlf	___flmul@grs+3,f
  7507     013B  0B89               	decfsz	9,f
  7508     013C  2937               	goto	u2495
  7509     013D  0830               	movf	___flmul@b,w
  7510     013E  00F0               	movwf	__Umul8_16@multiplicand
  7511     013F  0834               	movf	___flmul@a,w
  7512     0140  318C  24A6  3180   	fcall	__Umul8_16
  7513     0143  0871               	movf	?__Umul8_16+1,w
  7514     0144  0020               	movlb	0	; select bank0
  7515     0145  00C9               	movwf	___flmul@temp+1
  7516     0146  0870               	movf	?__Umul8_16,w
  7517     0147  00C8               	movwf	___flmul@temp
  7518     0148                     l2745:
  7519     0148  0848               	movf	___flmul@temp,w
  7520     0149  07BE               	addwf	___flmul@grs,f
  7521     014A  0849               	movf	___flmul@temp+1,w
  7522     014B  3DBF               	addwfc	___flmul@grs+1,f
  7523     014C  3000               	movlw	0
  7524     014D  3DC0               	addwfc	___flmul@grs+2,f
  7525     014E  3DC1               	addwfc	___flmul@grs+3,f
  7526     014F                     l2747:
  7527     014F  0831               	movf	___flmul@b+1,w
  7528     0150  00F0               	movwf	__Umul8_16@multiplicand
  7529     0151  0836               	movf	___flmul@a+2,w
  7530     0152  318C  24A6  3180   	fcall	__Umul8_16
  7531     0155  0871               	movf	?__Umul8_16+1,w
  7532     0156  0020               	movlb	0	; select bank0
  7533     0157  00C9               	movwf	___flmul@temp+1
  7534     0158  0870               	movf	?__Umul8_16,w
  7535     0159  00C8               	movwf	___flmul@temp
  7536     015A  0848               	movf	___flmul@temp,w
  7537     015B  07C4               	addwf	___flmul@prod,f
  7538     015C  0849               	movf	___flmul@temp+1,w
  7539     015D  3DC5               	addwfc	___flmul@prod+1,f
  7540     015E  3000               	movlw	0
  7541     015F  3DC6               	addwfc	___flmul@prod+2,f
  7542     0160  3DC7               	addwfc	___flmul@prod+3,f
  7543     0161                     l2749:
  7544     0161  0832               	movf	___flmul@b+2,w
  7545     0162  00F0               	movwf	__Umul8_16@multiplicand
  7546     0163  0835               	movf	___flmul@a+1,w
  7547     0164  318C  24A6  3180   	fcall	__Umul8_16
  7548     0167  0871               	movf	?__Umul8_16+1,w
  7549     0168  0020               	movlb	0	; select bank0
  7550     0169  00C9               	movwf	___flmul@temp+1
  7551     016A  0870               	movf	?__Umul8_16,w
  7552     016B  00C8               	movwf	___flmul@temp
  7553     016C                     l2751:
  7554     016C  0848               	movf	___flmul@temp,w
  7555     016D  07C4               	addwf	___flmul@prod,f
  7556     016E  0849               	movf	___flmul@temp+1,w
  7557     016F  3DC5               	addwfc	___flmul@prod+1,f
  7558     0170  3000               	movlw	0
  7559     0171  3DC6               	addwfc	___flmul@prod+2,f
  7560     0172  3DC7               	addwfc	___flmul@prod+3,f
  7561     0173  0832               	movf	___flmul@b+2,w
  7562     0174  00F0               	movwf	__Umul8_16@multiplicand
  7563     0175  0836               	movf	___flmul@a+2,w
  7564     0176  318C  24A6  3180   	fcall	__Umul8_16
  7565     0179  0871               	movf	?__Umul8_16+1,w
  7566     017A  0020               	movlb	0	; select bank0
  7567     017B  00C9               	movwf	___flmul@temp+1
  7568     017C  0870               	movf	?__Umul8_16,w
  7569     017D  00C8               	movwf	___flmul@temp
  7570     017E                     l2753:
  7571     017E  0848               	movf	___flmul@temp,w
  7572     017F  00B8               	movwf	??___flmul
  7573     0180  0849               	movf	___flmul@temp+1,w
  7574     0181  00B9               	movwf	??___flmul+1
  7575     0182  01BA               	clrf	??___flmul+2
  7576     0183  01BB               	clrf	??___flmul+3
  7577     0184  3008               	movlw	8
  7578     0185                     u2505:
  7579     0185  35B8               	lslf	??___flmul,f
  7580     0186  0DB9               	rlf	??___flmul+1,f
  7581     0187  0DBA               	rlf	??___flmul+2,f
  7582     0188  0DBB               	rlf	??___flmul+3,f
  7583     0189                     u2500:
  7584     0189  0B89               	decfsz	9,f
  7585     018A  2985               	goto	u2505
  7586     018B  0838               	movf	??___flmul,w
  7587     018C  07C4               	addwf	___flmul@prod,f
  7588     018D  0839               	movf	??___flmul+1,w
  7589     018E  3DC5               	addwfc	___flmul@prod+1,f
  7590     018F  083A               	movf	??___flmul+2,w
  7591     0190  3DC6               	addwfc	___flmul@prod+2,f
  7592     0191  083B               	movf	??___flmul+3,w
  7593     0192  3DC7               	addwfc	___flmul@prod+3,f
  7594     0193                     l2755:
  7595     0193  083E               	movf	___flmul@grs,w
  7596     0194  00B8               	movwf	??___flmul
  7597     0195  083F               	movf	___flmul@grs+1,w
  7598     0196  00B9               	movwf	??___flmul+1
  7599     0197  0840               	movf	___flmul@grs+2,w
  7600     0198  00BA               	movwf	??___flmul+2
  7601     0199  0841               	movf	___flmul@grs+3,w
  7602     019A  00BB               	movwf	??___flmul+3
  7603     019B  3018               	movlw	24
  7604     019C                     u2515:
  7605     019C  36BB               	lsrf	??___flmul+3,f
  7606     019D  0CBA               	rrf	??___flmul+2,f
  7607     019E  0CB9               	rrf	??___flmul+1,f
  7608     019F  0CB8               	rrf	??___flmul,f
  7609     01A0                     u2510:
  7610     01A0  0B89               	decfsz	9,f
  7611     01A1  299C               	goto	u2515
  7612     01A2  0838               	movf	??___flmul,w
  7613     01A3  07C4               	addwf	___flmul@prod,f
  7614     01A4  0839               	movf	??___flmul+1,w
  7615     01A5  3DC5               	addwfc	___flmul@prod+1,f
  7616     01A6  083A               	movf	??___flmul+2,w
  7617     01A7  3DC6               	addwfc	___flmul@prod+2,f
  7618     01A8  083B               	movf	??___flmul+3,w
  7619     01A9  3DC7               	addwfc	___flmul@prod+3,f
  7620     01AA                     l2757:
  7621     01AA  3008               	movlw	8
  7622     01AB                     u2525:
  7623     01AB  35BE               	lslf	___flmul@grs,f
  7624     01AC  0DBF               	rlf	___flmul@grs+1,f
  7625     01AD  0DC0               	rlf	___flmul@grs+2,f
  7626     01AE  0DC1               	rlf	___flmul@grs+3,f
  7627     01AF  0B89               	decfsz	9,f
  7628     01B0  29AB               	goto	u2525
  7629     01B1                     l2759:
  7630     01B1  0843               	movf	___flmul@bexp,w
  7631     01B2  0742               	addwf	___flmul@aexp,w
  7632     01B3  00B8               	movwf	??___flmul
  7633     01B4  01B9               	clrf	??___flmul+1
  7634     01B5  0DB9               	rlf	??___flmul+1,f
  7635     01B6  0838               	movf	??___flmul,w
  7636     01B7  3E82               	addlw	130
  7637     01B8  00C8               	movwf	___flmul@temp
  7638     01B9  30FF               	movlw	255
  7639     01BA  3D39               	addwfc	??___flmul+1,w
  7640     01BB  00C9               	movwf	___flmul@temp+1
  7641     01BC  29D4               	goto	l2771
  7642     01BD                     l2761:
  7643     01BD  3001               	movlw	1
  7644     01BE                     u2535:
  7645     01BE  35C4               	lslf	___flmul@prod,f
  7646     01BF  0DC5               	rlf	___flmul@prod+1,f
  7647     01C0  0DC6               	rlf	___flmul@prod+2,f
  7648     01C1  0DC7               	rlf	___flmul@prod+3,f
  7649     01C2  0B89               	decfsz	9,f
  7650     01C3  29BE               	goto	u2535
  7651     01C4                     l2763:
  7652     01C4  1FC1               	btfss	___flmul@grs+3,7
  7653     01C5  29C7               	goto	u2541
  7654     01C6  29C8               	goto	u2540
  7655     01C7                     u2541:
  7656     01C7  29C9               	goto	l2767
  7657     01C8                     u2540:
  7658     01C8                     l2765:
  7659     01C8  1444               	bsf	___flmul@prod,0
  7660     01C9                     l2767:
  7661     01C9  3001               	movlw	1
  7662     01CA                     u2555:
  7663     01CA  35BE               	lslf	___flmul@grs,f
  7664     01CB  0DBF               	rlf	___flmul@grs+1,f
  7665     01CC  0DC0               	rlf	___flmul@grs+2,f
  7666     01CD  0DC1               	rlf	___flmul@grs+3,f
  7667     01CE  0B89               	decfsz	9,f
  7668     01CF  29CA               	goto	u2555
  7669     01D0                     l2769:
  7670     01D0  30FF               	movlw	255
  7671     01D1  07C8               	addwf	___flmul@temp,f
  7672     01D2  30FF               	movlw	255
  7673     01D3  3DC9               	addwfc	___flmul@temp+1,f
  7674     01D4                     l2771:
  7675     01D4  1FC6               	btfss	___flmul@prod+2,7
  7676     01D5  29D7               	goto	u2561
  7677     01D6  29D8               	goto	u2560
  7678     01D7                     u2561:
  7679     01D7  29BD               	goto	l2761
  7680     01D8                     u2560:
  7681     01D8                     l2773:
  7682     01D8  01C2               	clrf	___flmul@aexp
  7683     01D9                     l2775:
  7684     01D9  1FC1               	btfss	___flmul@grs+3,7
  7685     01DA  29DC               	goto	u2571
  7686     01DB  29DD               	goto	u2570
  7687     01DC                     u2571:
  7688     01DC  29F9               	goto	l2783
  7689     01DD                     u2570:
  7690     01DD                     l2777:
  7691     01DD  30FF               	movlw	255
  7692     01DE  053E               	andwf	___flmul@grs,w
  7693     01DF  00B8               	movwf	??___flmul
  7694     01E0  30FF               	movlw	255
  7695     01E1  053F               	andwf	___flmul@grs+1,w
  7696     01E2  00B9               	movwf	??___flmul+1
  7697     01E3  30FF               	movlw	255
  7698     01E4  0540               	andwf	___flmul@grs+2,w
  7699     01E5  00BA               	movwf	??___flmul+2
  7700     01E6  307F               	movlw	127
  7701     01E7  0541               	andwf	___flmul@grs+3,w
  7702     01E8  00BB               	movwf	??___flmul+3
  7703     01E9  083B               	movf	??___flmul+3,w
  7704     01EA  043A               	iorwf	??___flmul+2,w
  7705     01EB  0439               	iorwf	??___flmul+1,w
  7706     01EC  0438               	iorwf	??___flmul,w
  7707     01ED  1903               	skipnz
  7708     01EE  29F0               	goto	u2581
  7709     01EF  29F1               	goto	u2580
  7710     01F0                     u2581:
  7711     01F0  29F4               	goto	l1162
  7712     01F1                     u2580:
  7713     01F1                     l2779:
  7714     01F1  01C2               	clrf	___flmul@aexp
  7715     01F2  0AC2               	incf	___flmul@aexp,f
  7716     01F3  29F9               	goto	l2783
  7717     01F4                     l1162:
  7718     01F4  1C44               	btfss	___flmul@prod,0
  7719     01F5  29F7               	goto	u2591
  7720     01F6  29F8               	goto	u2590
  7721     01F7                     u2591:
  7722     01F7  29F9               	goto	l2783
  7723     01F8                     u2590:
  7724     01F8  29F1               	goto	l2779
  7725     01F9                     l2783:
  7726     01F9  0842               	movf	___flmul@aexp,w
  7727     01FA  1903               	btfsc	3,2
  7728     01FB  29FD               	goto	u2601
  7729     01FC  29FE               	goto	u2600
  7730     01FD                     u2601:
  7731     01FD  2A26               	goto	l2793
  7732     01FE                     u2600:
  7733     01FE                     l2785:
  7734     01FE  3001               	movlw	1
  7735     01FF  07C4               	addwf	___flmul@prod,f
  7736     0200  3000               	movlw	0
  7737     0201  3DC5               	addwfc	___flmul@prod+1,f
  7738     0202  3000               	movlw	0
  7739     0203  3DC6               	addwfc	___flmul@prod+2,f
  7740     0204  3000               	movlw	0
  7741     0205  3DC7               	addwfc	___flmul@prod+3,f
  7742     0206                     l2787:
  7743     0206  1C47               	btfss	___flmul@prod+3,0
  7744     0207  2A09               	goto	u2611
  7745     0208  2A0A               	goto	u2610
  7746     0209                     u2611:
  7747     0209  2A26               	goto	l2793
  7748     020A                     u2610:
  7749     020A                     l2789:
  7750     020A  0844               	movf	___flmul@prod,w
  7751     020B  00B8               	movwf	??___flmul
  7752     020C  0845               	movf	___flmul@prod+1,w
  7753     020D  00B9               	movwf	??___flmul+1
  7754     020E  0846               	movf	___flmul@prod+2,w
  7755     020F  00BA               	movwf	??___flmul+2
  7756     0210  0847               	movf	___flmul@prod+3,w
  7757     0211  00BB               	movwf	??___flmul+3
  7758     0212  3001               	movlw	1
  7759     0213  00BC               	movwf	??___flmul+4
  7760     0214                     u2625:
  7761     0214  37BB               	asrf	??___flmul+3,f
  7762     0215  0CBA               	rrf	??___flmul+2,f
  7763     0216  0CB9               	rrf	??___flmul+1,f
  7764     0217  0CB8               	rrf	??___flmul,f
  7765     0218                     u2620:
  7766     0218  0BBC               	decfsz	??___flmul+4,f
  7767     0219  2A14               	goto	u2625
  7768     021A  083B               	movf	??___flmul+3,w
  7769     021B  00C7               	movwf	___flmul@prod+3
  7770     021C  083A               	movf	??___flmul+2,w
  7771     021D  00C6               	movwf	___flmul@prod+2
  7772     021E  0839               	movf	??___flmul+1,w
  7773     021F  00C5               	movwf	___flmul@prod+1
  7774     0220  0838               	movf	??___flmul,w
  7775     0221  00C4               	movwf	___flmul@prod
  7776     0222                     l2791:
  7777     0222  3001               	movlw	1
  7778     0223  07C8               	addwf	___flmul@temp,f
  7779     0224  3000               	movlw	0
  7780     0225  3DC9               	addwfc	___flmul@temp+1,f
  7781     0226                     l2793:
  7782     0226  0849               	movf	___flmul@temp+1,w
  7783     0227  3A80               	xorlw	128
  7784     0228  00B8               	movwf	??___flmul
  7785     0229  3080               	movlw	128
  7786     022A  0238               	subwf	??___flmul,w
  7787     022B  1D03               	skipz
  7788     022C  2A2F               	goto	u2635
  7789     022D  30FF               	movlw	255
  7790     022E  0248               	subwf	___flmul@temp,w
  7791     022F                     u2635:
  7792     022F  1C03               	skipc
  7793     0230  2A32               	goto	u2631
  7794     0231  2A33               	goto	u2630
  7795     0232                     u2631:
  7796     0232  2A3D               	goto	l2797
  7797     0233                     u2630:
  7798     0233                     l2795:
  7799     0233  307F               	movlw	127
  7800     0234  0020               	movlb	0	; select bank0
  7801     0235  00C7               	movwf	___flmul@prod+3
  7802     0236  3080               	movlw	128
  7803     0237  00C6               	movwf	___flmul@prod+2
  7804     0238  3000               	movlw	0
  7805     0239  00C5               	movwf	___flmul@prod+1
  7806     023A  3000               	movlw	0
  7807     023B  00C4               	movwf	___flmul@prod
  7808     023C  2A68               	goto	l1168
  7809     023D                     l2797:
  7810     023D  0020               	movlb	0	; select bank0
  7811     023E  0849               	movf	___flmul@temp+1,w
  7812     023F  3A80               	xorlw	128
  7813     0240  00B8               	movwf	??___flmul
  7814     0241  3080               	movlw	128
  7815     0242  0238               	subwf	??___flmul,w
  7816     0243  1D03               	skipz
  7817     0244  2A47               	goto	u2645
  7818     0245  3001               	movlw	1
  7819     0246  0248               	subwf	___flmul@temp,w
  7820     0247                     u2645:
  7821     0247  1803               	skipnc
  7822     0248  2A4A               	goto	u2641
  7823     0249  2A4B               	goto	u2640
  7824     024A                     u2641:
  7825     024A  2A56               	goto	l2803
  7826     024B                     u2640:
  7827     024B                     l2799:
  7828     024B  3000               	movlw	0
  7829     024C  0020               	movlb	0	; select bank0
  7830     024D  00C7               	movwf	___flmul@prod+3
  7831     024E  3000               	movlw	0
  7832     024F  00C6               	movwf	___flmul@prod+2
  7833     0250  3000               	movlw	0
  7834     0251  00C5               	movwf	___flmul@prod+1
  7835     0252  3000               	movlw	0
  7836     0253  00C4               	movwf	___flmul@prod
  7837     0254                     l2801:
  7838     0254  01BD               	clrf	___flmul@sign
  7839     0255  2A68               	goto	l1168
  7840     0256                     l2803:
  7841     0256  0020               	movlb	0	; select bank0
  7842     0257  0848               	movf	___flmul@temp,w
  7843     0258  00C3               	movwf	___flmul@bexp
  7844     0259  30FF               	movlw	255
  7845     025A  05C4               	andwf	___flmul@prod,f
  7846     025B  30FF               	movlw	255
  7847     025C  05C5               	andwf	___flmul@prod+1,f
  7848     025D  307F               	movlw	127
  7849     025E  05C6               	andwf	___flmul@prod+2,f
  7850     025F  3000               	movlw	0
  7851     0260  05C7               	andwf	___flmul@prod+3,f
  7852     0261                     l2805:
  7853     0261  1C43               	btfss	___flmul@bexp,0
  7854     0262  2A64               	goto	u2651
  7855     0263  2A65               	goto	u2650
  7856     0264                     u2651:
  7857     0264  2A66               	goto	l2809
  7858     0265                     u2650:
  7859     0265                     l2807:
  7860     0265  17C6               	bsf	___flmul@prod+2,7
  7861     0266                     l2809:
  7862     0266  3643               	lsrf	___flmul@bexp,w
  7863     0267  00C7               	movwf	___flmul@prod+3
  7864     0268                     l1168:
  7865     0268  083D               	movf	___flmul@sign,w
  7866     0269  00B8               	movwf	??___flmul
  7867     026A  0838               	movf	??___flmul,w
  7868     026B  04C7               	iorwf	___flmul@prod+3,f
  7869     026C                     l2811:
  7870     026C  0847               	movf	___flmul@prod+3,w
  7871     026D  00B3               	movwf	?___flmul+3
  7872     026E  0846               	movf	___flmul@prod+2,w
  7873     026F  00B2               	movwf	?___flmul+2
  7874     0270  0845               	movf	___flmul@prod+1,w
  7875     0271  00B1               	movwf	?___flmul+1
  7876     0272  0844               	movf	___flmul@prod,w
  7877     0273  00B0               	movwf	?___flmul
  7878     0274                     l1156:
  7879     0274  0008               	return
  7880     0275                     __end_of___flmul:
  7881                           
  7882                           	psect	text36
  7883     0CA6                     __ptext36:	
  7884 ;; *************** function __Umul8_16 *****************
  7885 ;; Defined at:
  7886 ;;		line 4 in file "C:\Program Files\Microchip\xc8\v2.40\pic\sources\c99\common\Umul8_16.c"
  7887 ;; Parameters:    Size  Location     Type
  7888 ;;  multiplier      1    wreg     unsigned char 
  7889 ;;  multiplicand    1    0[COMMON] unsigned char 
  7890 ;; Auto vars:     Size  Location     Type
  7891 ;;  multiplier      1    8[COMMON] unsigned char 
  7892 ;;  word_mpld       2    6[COMMON] unsigned int 
  7893 ;;  product         2    4[COMMON] unsigned int 
  7894 ;; Return value:  Size  Location     Type
  7895 ;;                  2    0[COMMON] unsigned int 
  7896 ;; Registers used:
  7897 ;;		wreg, status,2, status,0
  7898 ;; Tracked objects:
  7899 ;;		On entry : 0/0
  7900 ;;		On exit  : 0/0
  7901 ;;		Unchanged: 0/0
  7902 ;; Data sizes:     COMMON   BANK0   BANK1   BANK2   BANK3   BANK4
  7903 ;;      Params:         2       0       0       0       0       0
  7904 ;;      Locals:         5       0       0       0       0       0
  7905 ;;      Temps:          2       0       0       0       0       0
  7906 ;;      Totals:         9       0       0       0       0       0
  7907 ;;Total ram usage:        9 bytes
  7908 ;; Hardware stack levels used: 1
  7909 ;; Hardware stack levels required when called: 3
  7910 ;; This function calls:
  7911 ;;		Nothing
  7912 ;; This function is called by:
  7913 ;;		___flmul
  7914 ;; This function uses a non-reentrant model
  7915 ;;
  7916                           
  7917     0CA6                     __Umul8_16:	
  7918                           ;psect for function __Umul8_16
  7919                           
  7920                           
  7921                           ;incstack = 0
  7922                           ; Regs used in __Umul8_16: [wreg+status,2+status,0]
  7923                           ;__Umul8_16@multiplier stored from wreg
  7924     0CA6  00F8               	movwf	__Umul8_16@multiplier
  7925     0CA7                     l2405:
  7926     0CA7  01F4               	clrf	__Umul8_16@product
  7927     0CA8  01F5               	clrf	__Umul8_16@product+1
  7928     0CA9                     l2407:
  7929     0CA9  0870               	movf	__Umul8_16@multiplicand,w
  7930     0CAA  00F2               	movwf	??__Umul8_16
  7931     0CAB  01F3               	clrf	??__Umul8_16+1
  7932     0CAC  0872               	movf	??__Umul8_16,w
  7933     0CAD  00F6               	movwf	__Umul8_16@word_mpld
  7934     0CAE  0873               	movf	??__Umul8_16+1,w
  7935     0CAF  00F7               	movwf	__Umul8_16@word_mpld+1
  7936     0CB0                     l2409:
  7937     0CB0  1C78               	btfss	__Umul8_16@multiplier,0
  7938     0CB1  2CB3               	goto	u1971
  7939     0CB2  2CB4               	goto	u1970
  7940     0CB3                     u1971:
  7941     0CB3  2CB8               	goto	l1175
  7942     0CB4                     u1970:
  7943     0CB4                     l2411:
  7944     0CB4  0876               	movf	__Umul8_16@word_mpld,w
  7945     0CB5  07F4               	addwf	__Umul8_16@product,f
  7946     0CB6  0877               	movf	__Umul8_16@word_mpld+1,w
  7947     0CB7  3DF5               	addwfc	__Umul8_16@product+1,f
  7948     0CB8                     l1175:
  7949     0CB8  3001               	movlw	1
  7950     0CB9                     u1985:
  7951     0CB9  35F6               	lslf	__Umul8_16@word_mpld,f
  7952     0CBA  0DF7               	rlf	__Umul8_16@word_mpld+1,f
  7953     0CBB  0B89               	decfsz	9,f
  7954     0CBC  2CB9               	goto	u1985
  7955     0CBD  1003               	clrc
  7956     0CBE  0CF8               	rrf	__Umul8_16@multiplier,f
  7957     0CBF                     l2413:
  7958     0CBF  0878               	movf	__Umul8_16@multiplier,w
  7959     0CC0  1D03               	btfss	3,2
  7960     0CC1  2CC3               	goto	u1991
  7961     0CC2  2CC4               	goto	u1990
  7962     0CC3                     u1991:
  7963     0CC3  2CB0               	goto	l2409
  7964     0CC4                     u1990:
  7965     0CC4                     l2415:
  7966     0CC4  0875               	movf	__Umul8_16@product+1,w
  7967     0CC5  00F1               	movwf	?__Umul8_16+1
  7968     0CC6  0874               	movf	__Umul8_16@product,w
  7969     0CC7  00F0               	movwf	?__Umul8_16
  7970     0CC8                     l1177:
  7971     0CC8  0008               	return
  7972     0CC9                     __end_of__Umul8_16:
  7973                           
  7974                           	psect	text37
  7975     0481                     __ptext37:	
  7976 ;; *************** function ___fldiv *****************
  7977 ;; Defined at:
  7978 ;;		line 8 in file "C:\Program Files\Microchip\xc8\v2.40\pic\sources\c99\common\sprcdiv.c"
  7979 ;; Parameters:    Size  Location     Type
  7980 ;;  a               4   42[BANK0 ] unsigned int 
  7981 ;;  b               4   46[BANK0 ] unsigned int 
  7982 ;; Auto vars:     Size  Location     Type
  7983 ;;  grs             4   62[BANK0 ] unsigned long 
  7984 ;;  rem             4   55[BANK0 ] unsigned long 
  7985 ;;  new_exp         2   60[BANK0 ] int 
  7986 ;;  aexp            1   67[BANK0 ] unsigned char 
  7987 ;;  bexp            1   66[BANK0 ] unsigned char 
  7988 ;;  sign            1   59[BANK0 ] unsigned char 
  7989 ;; Return value:  Size  Location     Type
  7990 ;;                  4   42[BANK0 ] unsigned char 
  7991 ;; Registers used:
  7992 ;;		wreg, status,2, status,0
  7993 ;; Tracked objects:
  7994 ;;		On entry : 0/0
  7995 ;;		On exit  : 0/0
  7996 ;;		Unchanged: 0/0
  7997 ;; Data sizes:     COMMON   BANK0   BANK1   BANK2   BANK3   BANK4
  7998 ;;      Params:         0       8       0       0       0       0
  7999 ;;      Locals:         0      13       0       0       0       0
  8000 ;;      Temps:          0       5       0       0       0       0
  8001 ;;      Totals:         0      26       0       0       0       0
  8002 ;;Total ram usage:       26 bytes
  8003 ;; Hardware stack levels used: 1
  8004 ;; Hardware stack levels required when called: 3
  8005 ;; This function calls:
  8006 ;;		Nothing
  8007 ;; This function is called by:
  8008 ;;		_ADC2Display
  8009 ;; This function uses a non-reentrant model
  8010 ;;
  8011                           
  8012     0481                     ___fldiv:	
  8013                           ;psect for function ___fldiv
  8014                           
  8015     0481                     l2535:	
  8016                           ;incstack = 0
  8017                           ; Regs used in ___fldiv: [wreg+status,2+status,0]
  8018                           
  8019     0481  0020               	movlb	0	; select bank0
  8020     0482  0851               	movf	___fldiv@b+3,w
  8021     0483  3980               	andlw	128
  8022     0484  00DB               	movwf	___fldiv@sign
  8023     0485                     l2537:
  8024     0485  3551               	lslf	___fldiv@b+3,w
  8025     0486  00E2               	movwf	___fldiv@bexp
  8026     0487                     l2539:
  8027     0487  1FD0               	btfss	___fldiv@b+2,7
  8028     0488  2C8A               	goto	u2111
  8029     0489  2C8B               	goto	u2110
  8030     048A                     u2111:
  8031     048A  2C8C               	goto	l2543
  8032     048B                     u2110:
  8033     048B                     l2541:
  8034     048B  1462               	bsf	___fldiv@bexp,0
  8035     048C                     l2543:
  8036     048C  0862               	movf	___fldiv@bexp,w
  8037     048D  1903               	btfsc	3,2
  8038     048E  2C90               	goto	u2121
  8039     048F  2C91               	goto	u2120
  8040     0490                     u2121:
  8041     0490  2CA1               	goto	l2553
  8042     0491                     u2120:
  8043     0491                     l2545:
  8044     0491  0A62               	incf	___fldiv@bexp,w
  8045     0492  1D03               	btfss	3,2
  8046     0493  2C95               	goto	u2131
  8047     0494  2C96               	goto	u2130
  8048     0495                     u2131:
  8049     0495  2C9E               	goto	l2549
  8050     0496                     u2130:
  8051     0496                     l2547:
  8052     0496  3000               	movlw	0
  8053     0497  00D1               	movwf	___fldiv@b+3
  8054     0498  3000               	movlw	0
  8055     0499  00D0               	movwf	___fldiv@b+2
  8056     049A  3000               	movlw	0
  8057     049B  00CF               	movwf	___fldiv@b+1
  8058     049C  3000               	movlw	0
  8059     049D  00CE               	movwf	___fldiv@b
  8060     049E                     l2549:
  8061     049E  17D0               	bsf	___fldiv@b+2,7
  8062     049F                     l2551:
  8063     049F  01D1               	clrf	___fldiv@b+3
  8064     04A0  2CA9               	goto	l2555
  8065     04A1                     l2553:
  8066     04A1  3000               	movlw	0
  8067     04A2  00D1               	movwf	___fldiv@b+3
  8068     04A3  3000               	movlw	0
  8069     04A4  00D0               	movwf	___fldiv@b+2
  8070     04A5  3000               	movlw	0
  8071     04A6  00CF               	movwf	___fldiv@b+1
  8072     04A7  3000               	movlw	0
  8073     04A8  00CE               	movwf	___fldiv@b
  8074     04A9                     l2555:
  8075     04A9  084D               	movf	___fldiv@a+3,w
  8076     04AA  3980               	andlw	128
  8077     04AB  00D2               	movwf	??___fldiv
  8078     04AC  0852               	movf	??___fldiv,w
  8079     04AD  06DB               	xorwf	___fldiv@sign,f
  8080     04AE                     l2557:
  8081     04AE  354D               	lslf	___fldiv@a+3,w
  8082     04AF  00E3               	movwf	___fldiv@aexp
  8083     04B0                     l2559:
  8084     04B0  1FCC               	btfss	___fldiv@a+2,7
  8085     04B1  2CB3               	goto	u2141
  8086     04B2  2CB4               	goto	u2140
  8087     04B3                     u2141:
  8088     04B3  2CB5               	goto	l2563
  8089     04B4                     u2140:
  8090     04B4                     l2561:
  8091     04B4  1463               	bsf	___fldiv@aexp,0
  8092     04B5                     l2563:
  8093     04B5  0863               	movf	___fldiv@aexp,w
  8094     04B6  1903               	btfsc	3,2
  8095     04B7  2CB9               	goto	u2151
  8096     04B8  2CBA               	goto	u2150
  8097     04B9                     u2151:
  8098     04B9  2CCA               	goto	l2573
  8099     04BA                     u2150:
  8100     04BA                     l2565:
  8101     04BA  0A63               	incf	___fldiv@aexp,w
  8102     04BB  1D03               	btfss	3,2
  8103     04BC  2CBE               	goto	u2161
  8104     04BD  2CBF               	goto	u2160
  8105     04BE                     u2161:
  8106     04BE  2CC7               	goto	l2569
  8107     04BF                     u2160:
  8108     04BF                     l2567:
  8109     04BF  3000               	movlw	0
  8110     04C0  00CD               	movwf	___fldiv@a+3
  8111     04C1  3000               	movlw	0
  8112     04C2  00CC               	movwf	___fldiv@a+2
  8113     04C3  3000               	movlw	0
  8114     04C4  00CB               	movwf	___fldiv@a+1
  8115     04C5  3000               	movlw	0
  8116     04C6  00CA               	movwf	___fldiv@a
  8117     04C7                     l2569:
  8118     04C7  17CC               	bsf	___fldiv@a+2,7
  8119     04C8                     l2571:
  8120     04C8  01CD               	clrf	___fldiv@a+3
  8121     04C9  2CD2               	goto	l1116
  8122     04CA                     l2573:
  8123     04CA  3000               	movlw	0
  8124     04CB  00CD               	movwf	___fldiv@a+3
  8125     04CC  3000               	movlw	0
  8126     04CD  00CC               	movwf	___fldiv@a+2
  8127     04CE  3000               	movlw	0
  8128     04CF  00CB               	movwf	___fldiv@a+1
  8129     04D0  3000               	movlw	0
  8130     04D1  00CA               	movwf	___fldiv@a
  8131     04D2                     l1116:
  8132     04D2  084D               	movf	___fldiv@a+3,w
  8133     04D3  044C               	iorwf	___fldiv@a+2,w
  8134     04D4  044B               	iorwf	___fldiv@a+1,w
  8135     04D5  044A               	iorwf	___fldiv@a,w
  8136     04D6  1D03               	skipz
  8137     04D7  2CD9               	goto	u2171
  8138     04D8  2CDA               	goto	u2170
  8139     04D9                     u2171:
  8140     04D9  2CF3               	goto	l2583
  8141     04DA                     u2170:
  8142     04DA                     l2575:
  8143     04DA  3000               	movlw	0
  8144     04DB  00D1               	movwf	___fldiv@b+3
  8145     04DC  3000               	movlw	0
  8146     04DD  00D0               	movwf	___fldiv@b+2
  8147     04DE  3000               	movlw	0
  8148     04DF  00CF               	movwf	___fldiv@b+1
  8149     04E0  3000               	movlw	0
  8150     04E1  00CE               	movwf	___fldiv@b
  8151     04E2  3080               	movlw	128
  8152     04E3  04D0               	iorwf	___fldiv@b+2,f
  8153     04E4  307F               	movlw	127
  8154     04E5  04D1               	iorwf	___fldiv@b+3,f
  8155     04E6                     l2577:
  8156     04E6  085B               	movf	___fldiv@sign,w
  8157     04E7  00D2               	movwf	??___fldiv
  8158     04E8  0852               	movf	??___fldiv,w
  8159     04E9  04D1               	iorwf	___fldiv@b+3,f
  8160     04EA                     l2579:
  8161     04EA  0851               	movf	___fldiv@b+3,w
  8162     04EB  00CD               	movwf	?___fldiv+3
  8163     04EC  0850               	movf	___fldiv@b+2,w
  8164     04ED  00CC               	movwf	?___fldiv+2
  8165     04EE  084F               	movf	___fldiv@b+1,w
  8166     04EF  00CB               	movwf	?___fldiv+1
  8167     04F0  084E               	movf	___fldiv@b,w
  8168     04F1  00CA               	movwf	?___fldiv
  8169     04F2  2E2A               	goto	l1118
  8170     04F3                     l2583:
  8171     04F3  0862               	movf	___fldiv@bexp,w
  8172     04F4  1D03               	btfss	3,2
  8173     04F5  2CF7               	goto	u2181
  8174     04F6  2CF8               	goto	u2180
  8175     04F7                     u2181:
  8176     04F7  2D01               	goto	l2589
  8177     04F8                     u2180:
  8178     04F8                     l2585:
  8179     04F8  3000               	movlw	0
  8180     04F9  00CD               	movwf	?___fldiv+3
  8181     04FA  3000               	movlw	0
  8182     04FB  00CC               	movwf	?___fldiv+2
  8183     04FC  3000               	movlw	0
  8184     04FD  00CB               	movwf	?___fldiv+1
  8185     04FE  3000               	movlw	0
  8186     04FF  00CA               	movwf	?___fldiv
  8187     0500  2E2A               	goto	l1118
  8188     0501                     l2589:
  8189     0501  0862               	movf	___fldiv@bexp,w
  8190     0502  00D2               	movwf	??___fldiv
  8191     0503  01D3               	clrf	??___fldiv+1
  8192     0504  0853               	movf	??___fldiv+1,w
  8193     0505  00D5               	movwf	??___fldiv+3
  8194     0506  0863               	movf	___fldiv@aexp,w
  8195     0507  0252               	subwf	??___fldiv,w
  8196     0508  00D4               	movwf	??___fldiv+2
  8197     0509  1C03               	skipc
  8198     050A  03D5               	decf	??___fldiv+3,f
  8199     050B  0854               	movf	??___fldiv+2,w
  8200     050C  3E7F               	addlw	127
  8201     050D  00DC               	movwf	___fldiv@new_exp
  8202     050E  3000               	movlw	0
  8203     050F  3D55               	addwfc	??___fldiv+3,w
  8204     0510  00DD               	movwf	___fldiv@new_exp+1
  8205     0511                     l2591:
  8206     0511  0851               	movf	___fldiv@b+3,w
  8207     0512  00DA               	movwf	___fldiv@rem+3
  8208     0513  0850               	movf	___fldiv@b+2,w
  8209     0514  00D9               	movwf	___fldiv@rem+2
  8210     0515  084F               	movf	___fldiv@b+1,w
  8211     0516  00D8               	movwf	___fldiv@rem+1
  8212     0517  084E               	movf	___fldiv@b,w
  8213     0518  00D7               	movwf	___fldiv@rem
  8214     0519                     l2593:
  8215     0519  3000               	movlw	0
  8216     051A  00D1               	movwf	___fldiv@b+3
  8217     051B  3000               	movlw	0
  8218     051C  00D0               	movwf	___fldiv@b+2
  8219     051D  3000               	movlw	0
  8220     051E  00CF               	movwf	___fldiv@b+1
  8221     051F  3000               	movlw	0
  8222     0520  00CE               	movwf	___fldiv@b
  8223     0521                     l2595:
  8224     0521  3000               	movlw	0
  8225     0522  00E1               	movwf	___fldiv@grs+3
  8226     0523  3000               	movlw	0
  8227     0524  00E0               	movwf	___fldiv@grs+2
  8228     0525  3000               	movlw	0
  8229     0526  00DF               	movwf	___fldiv@grs+1
  8230     0527  3000               	movlw	0
  8231     0528  00DE               	movwf	___fldiv@grs
  8232     0529                     l2597:
  8233     0529  01E3               	clrf	___fldiv@aexp
  8234     052A  2D69               	goto	l2617
  8235     052B                     l2599:
  8236     052B  0863               	movf	___fldiv@aexp,w
  8237     052C  1903               	btfsc	3,2
  8238     052D  2D2F               	goto	u2191
  8239     052E  2D30               	goto	u2190
  8240     052F                     u2191:
  8241     052F  2D4A               	goto	l2609
  8242     0530                     u2190:
  8243     0530                     l2601:
  8244     0530  3001               	movlw	1
  8245     0531                     u2205:
  8246     0531  35D7               	lslf	___fldiv@rem,f
  8247     0532  0DD8               	rlf	___fldiv@rem+1,f
  8248     0533  0DD9               	rlf	___fldiv@rem+2,f
  8249     0534  0DDA               	rlf	___fldiv@rem+3,f
  8250     0535  0B89               	decfsz	9,f
  8251     0536  2D31               	goto	u2205
  8252     0537  3001               	movlw	1
  8253     0538                     u2215:
  8254     0538  35CE               	lslf	___fldiv@b,f
  8255     0539  0DCF               	rlf	___fldiv@b+1,f
  8256     053A  0DD0               	rlf	___fldiv@b+2,f
  8257     053B  0DD1               	rlf	___fldiv@b+3,f
  8258     053C  0B89               	decfsz	9,f
  8259     053D  2D38               	goto	u2215
  8260     053E                     l2603:
  8261     053E  1FE1               	btfss	___fldiv@grs+3,7
  8262     053F  2D41               	goto	u2221
  8263     0540  2D42               	goto	u2220
  8264     0541                     u2221:
  8265     0541  2D43               	goto	l2607
  8266     0542                     u2220:
  8267     0542                     l2605:
  8268     0542  144E               	bsf	___fldiv@b,0
  8269     0543                     l2607:
  8270     0543  3001               	movlw	1
  8271     0544                     u2235:
  8272     0544  35DE               	lslf	___fldiv@grs,f
  8273     0545  0DDF               	rlf	___fldiv@grs+1,f
  8274     0546  0DE0               	rlf	___fldiv@grs+2,f
  8275     0547  0DE1               	rlf	___fldiv@grs+3,f
  8276     0548  0B89               	decfsz	9,f
  8277     0549  2D44               	goto	u2235
  8278     054A                     l2609:
  8279     054A  084D               	movf	___fldiv@a+3,w
  8280     054B  025A               	subwf	___fldiv@rem+3,w
  8281     054C  1D03               	skipz
  8282     054D  2D58               	goto	u2245
  8283     054E  084C               	movf	___fldiv@a+2,w
  8284     054F  0259               	subwf	___fldiv@rem+2,w
  8285     0550  1D03               	skipz
  8286     0551  2D58               	goto	u2245
  8287     0552  084B               	movf	___fldiv@a+1,w
  8288     0553  0258               	subwf	___fldiv@rem+1,w
  8289     0554  1D03               	skipz
  8290     0555  2D58               	goto	u2245
  8291     0556  084A               	movf	___fldiv@a,w
  8292     0557  0257               	subwf	___fldiv@rem,w
  8293     0558                     u2245:
  8294     0558  1C03               	skipc
  8295     0559  2D5B               	goto	u2241
  8296     055A  2D5C               	goto	u2240
  8297     055B                     u2241:
  8298     055B  2D65               	goto	l2615
  8299     055C                     u2240:
  8300     055C                     l2611:
  8301     055C  1761               	bsf	___fldiv@grs+3,6
  8302     055D                     l2613:
  8303     055D  084A               	movf	___fldiv@a,w
  8304     055E  02D7               	subwf	___fldiv@rem,f
  8305     055F  084B               	movf	___fldiv@a+1,w
  8306     0560  3BD8               	subwfb	___fldiv@rem+1,f
  8307     0561  084C               	movf	___fldiv@a+2,w
  8308     0562  3BD9               	subwfb	___fldiv@rem+2,f
  8309     0563  084D               	movf	___fldiv@a+3,w
  8310     0564  3BDA               	subwfb	___fldiv@rem+3,f
  8311     0565                     l2615:
  8312     0565  3001               	movlw	1
  8313     0566  00D2               	movwf	??___fldiv
  8314     0567  0852               	movf	??___fldiv,w
  8315     0568  07E3               	addwf	___fldiv@aexp,f
  8316     0569                     l2617:
  8317     0569  301A               	movlw	26
  8318     056A  0263               	subwf	___fldiv@aexp,w
  8319     056B  1C03               	skipc
  8320     056C  2D6E               	goto	u2251
  8321     056D  2D6F               	goto	u2250
  8322     056E                     u2251:
  8323     056E  2D2B               	goto	l2599
  8324     056F                     u2250:
  8325     056F                     l2619:
  8326     056F  085A               	movf	___fldiv@rem+3,w
  8327     0570  0459               	iorwf	___fldiv@rem+2,w
  8328     0571  0458               	iorwf	___fldiv@rem+1,w
  8329     0572  0457               	iorwf	___fldiv@rem,w
  8330     0573  1903               	skipnz
  8331     0574  2D76               	goto	u2261
  8332     0575  2D77               	goto	u2260
  8333     0576                     u2261:
  8334     0576  2D90               	goto	l2633
  8335     0577                     u2260:
  8336     0577                     l2621:
  8337     0577  145E               	bsf	___fldiv@grs,0
  8338     0578  2D90               	goto	l2633
  8339     0579                     l2623:
  8340     0579  3001               	movlw	1
  8341     057A                     u2275:
  8342     057A  35CE               	lslf	___fldiv@b,f
  8343     057B  0DCF               	rlf	___fldiv@b+1,f
  8344     057C  0DD0               	rlf	___fldiv@b+2,f
  8345     057D  0DD1               	rlf	___fldiv@b+3,f
  8346     057E  0B89               	decfsz	9,f
  8347     057F  2D7A               	goto	u2275
  8348     0580                     l2625:
  8349     0580  1FE1               	btfss	___fldiv@grs+3,7
  8350     0581  2D83               	goto	u2281
  8351     0582  2D84               	goto	u2280
  8352     0583                     u2281:
  8353     0583  2D85               	goto	l2629
  8354     0584                     u2280:
  8355     0584                     l2627:
  8356     0584  144E               	bsf	___fldiv@b,0
  8357     0585                     l2629:
  8358     0585  3001               	movlw	1
  8359     0586                     u2295:
  8360     0586  35DE               	lslf	___fldiv@grs,f
  8361     0587  0DDF               	rlf	___fldiv@grs+1,f
  8362     0588  0DE0               	rlf	___fldiv@grs+2,f
  8363     0589  0DE1               	rlf	___fldiv@grs+3,f
  8364     058A  0B89               	decfsz	9,f
  8365     058B  2D86               	goto	u2295
  8366     058C                     l2631:
  8367     058C  30FF               	movlw	255
  8368     058D  07DC               	addwf	___fldiv@new_exp,f
  8369     058E  30FF               	movlw	255
  8370     058F  3DDD               	addwfc	___fldiv@new_exp+1,f
  8371     0590                     l2633:
  8372     0590  1FD0               	btfss	___fldiv@b+2,7
  8373     0591  2D93               	goto	u2301
  8374     0592  2D94               	goto	u2300
  8375     0593                     u2301:
  8376     0593  2D79               	goto	l2623
  8377     0594                     u2300:
  8378     0594                     l2635:
  8379     0594  01E3               	clrf	___fldiv@aexp
  8380     0595                     l2637:
  8381     0595  1FE1               	btfss	___fldiv@grs+3,7
  8382     0596  2D98               	goto	u2311
  8383     0597  2D99               	goto	u2310
  8384     0598                     u2311:
  8385     0598  2DB5               	goto	l2645
  8386     0599                     u2310:
  8387     0599                     l2639:
  8388     0599  30FF               	movlw	255
  8389     059A  055E               	andwf	___fldiv@grs,w
  8390     059B  00D2               	movwf	??___fldiv
  8391     059C  30FF               	movlw	255
  8392     059D  055F               	andwf	___fldiv@grs+1,w
  8393     059E  00D3               	movwf	??___fldiv+1
  8394     059F  30FF               	movlw	255
  8395     05A0  0560               	andwf	___fldiv@grs+2,w
  8396     05A1  00D4               	movwf	??___fldiv+2
  8397     05A2  307F               	movlw	127
  8398     05A3  0561               	andwf	___fldiv@grs+3,w
  8399     05A4  00D5               	movwf	??___fldiv+3
  8400     05A5  0855               	movf	??___fldiv+3,w
  8401     05A6  0454               	iorwf	??___fldiv+2,w
  8402     05A7  0453               	iorwf	??___fldiv+1,w
  8403     05A8  0452               	iorwf	??___fldiv,w
  8404     05A9  1903               	skipnz
  8405     05AA  2DAC               	goto	u2321
  8406     05AB  2DAD               	goto	u2320
  8407     05AC                     u2321:
  8408     05AC  2DB0               	goto	l1132
  8409     05AD                     u2320:
  8410     05AD                     l2641:
  8411     05AD  01E3               	clrf	___fldiv@aexp
  8412     05AE  0AE3               	incf	___fldiv@aexp,f
  8413     05AF  2DB5               	goto	l2645
  8414     05B0                     l1132:
  8415     05B0  1C4E               	btfss	___fldiv@b,0
  8416     05B1  2DB3               	goto	u2331
  8417     05B2  2DB4               	goto	u2330
  8418     05B3                     u2331:
  8419     05B3  2DB5               	goto	l2645
  8420     05B4                     u2330:
  8421     05B4  2DAD               	goto	l2641
  8422     05B5                     l2645:
  8423     05B5  0863               	movf	___fldiv@aexp,w
  8424     05B6  1903               	btfsc	3,2
  8425     05B7  2DB9               	goto	u2341
  8426     05B8  2DBA               	goto	u2340
  8427     05B9                     u2341:
  8428     05B9  2DE2               	goto	l2655
  8429     05BA                     u2340:
  8430     05BA                     l2647:
  8431     05BA  3001               	movlw	1
  8432     05BB  07CE               	addwf	___fldiv@b,f
  8433     05BC  3000               	movlw	0
  8434     05BD  3DCF               	addwfc	___fldiv@b+1,f
  8435     05BE  3000               	movlw	0
  8436     05BF  3DD0               	addwfc	___fldiv@b+2,f
  8437     05C0  3000               	movlw	0
  8438     05C1  3DD1               	addwfc	___fldiv@b+3,f
  8439     05C2                     l2649:
  8440     05C2  1C51               	btfss	___fldiv@b+3,0
  8441     05C3  2DC5               	goto	u2351
  8442     05C4  2DC6               	goto	u2350
  8443     05C5                     u2351:
  8444     05C5  2DE2               	goto	l2655
  8445     05C6                     u2350:
  8446     05C6                     l2651:
  8447     05C6  084E               	movf	___fldiv@b,w
  8448     05C7  00D2               	movwf	??___fldiv
  8449     05C8  084F               	movf	___fldiv@b+1,w
  8450     05C9  00D3               	movwf	??___fldiv+1
  8451     05CA  0850               	movf	___fldiv@b+2,w
  8452     05CB  00D4               	movwf	??___fldiv+2
  8453     05CC  0851               	movf	___fldiv@b+3,w
  8454     05CD  00D5               	movwf	??___fldiv+3
  8455     05CE  3001               	movlw	1
  8456     05CF  00D6               	movwf	??___fldiv+4
  8457     05D0                     u2365:
  8458     05D0  37D5               	asrf	??___fldiv+3,f
  8459     05D1  0CD4               	rrf	??___fldiv+2,f
  8460     05D2  0CD3               	rrf	??___fldiv+1,f
  8461     05D3  0CD2               	rrf	??___fldiv,f
  8462     05D4                     u2360:
  8463     05D4  0BD6               	decfsz	??___fldiv+4,f
  8464     05D5  2DD0               	goto	u2365
  8465     05D6  0855               	movf	??___fldiv+3,w
  8466     05D7  00D1               	movwf	___fldiv@b+3
  8467     05D8  0854               	movf	??___fldiv+2,w
  8468     05D9  00D0               	movwf	___fldiv@b+2
  8469     05DA  0853               	movf	??___fldiv+1,w
  8470     05DB  00CF               	movwf	___fldiv@b+1
  8471     05DC  0852               	movf	??___fldiv,w
  8472     05DD  00CE               	movwf	___fldiv@b
  8473     05DE                     l2653:
  8474     05DE  3001               	movlw	1
  8475     05DF  07DC               	addwf	___fldiv@new_exp,f
  8476     05E0  3000               	movlw	0
  8477     05E1  3DDD               	addwfc	___fldiv@new_exp+1,f
  8478     05E2                     l2655:
  8479     05E2  085D               	movf	___fldiv@new_exp+1,w
  8480     05E3  3A80               	xorlw	128
  8481     05E4  00D2               	movwf	??___fldiv
  8482     05E5  3080               	movlw	128
  8483     05E6  0252               	subwf	??___fldiv,w
  8484     05E7  1D03               	skipz
  8485     05E8  2DEB               	goto	u2375
  8486     05E9  30FF               	movlw	255
  8487     05EA  025C               	subwf	___fldiv@new_exp,w
  8488     05EB                     u2375:
  8489     05EB  1C03               	skipc
  8490     05EC  2DEE               	goto	u2371
  8491     05ED  2DEF               	goto	u2370
  8492     05EE                     u2371:
  8493     05EE  2DFC               	goto	l1137
  8494     05EF                     u2370:
  8495     05EF                     l2657:
  8496     05EF  30FF               	movlw	255
  8497     05F0  0020               	movlb	0	; select bank0
  8498     05F1  00DC               	movwf	___fldiv@new_exp
  8499     05F2  3000               	movlw	0
  8500     05F3  00DD               	movwf	___fldiv@new_exp+1
  8501     05F4  3000               	movlw	0
  8502     05F5  00D1               	movwf	___fldiv@b+3
  8503     05F6  3000               	movlw	0
  8504     05F7  00D0               	movwf	___fldiv@b+2
  8505     05F8  3000               	movlw	0
  8506     05F9  00CF               	movwf	___fldiv@b+1
  8507     05FA  3000               	movlw	0
  8508     05FB  00CE               	movwf	___fldiv@b
  8509     05FC                     l1137:
  8510     05FC  0020               	movlb	0	; select bank0
  8511     05FD  085D               	movf	___fldiv@new_exp+1,w
  8512     05FE  3A80               	xorlw	128
  8513     05FF  00D2               	movwf	??___fldiv
  8514     0600  3080               	movlw	128
  8515     0601  0252               	subwf	??___fldiv,w
  8516     0602  1D03               	skipz
  8517     0603  2E06               	goto	u2385
  8518     0604  3001               	movlw	1
  8519     0605  025C               	subwf	___fldiv@new_exp,w
  8520     0606                     u2385:
  8521     0606  1803               	skipnc
  8522     0607  2E09               	goto	u2381
  8523     0608  2E0A               	goto	u2380
  8524     0609                     u2381:
  8525     0609  2E16               	goto	l1138
  8526     060A                     u2380:
  8527     060A                     l2659:
  8528     060A  0020               	movlb	0	; select bank0
  8529     060B  01DC               	clrf	___fldiv@new_exp
  8530     060C  01DD               	clrf	___fldiv@new_exp+1
  8531     060D                     l2661:
  8532     060D  3000               	movlw	0
  8533     060E  00D1               	movwf	___fldiv@b+3
  8534     060F  3000               	movlw	0
  8535     0610  00D0               	movwf	___fldiv@b+2
  8536     0611  3000               	movlw	0
  8537     0612  00CF               	movwf	___fldiv@b+1
  8538     0613  3000               	movlw	0
  8539     0614  00CE               	movwf	___fldiv@b
  8540     0615                     l2663:
  8541     0615  01DB               	clrf	___fldiv@sign
  8542     0616                     l1138:
  8543     0616  0020               	movlb	0	; select bank0
  8544     0617  085C               	movf	___fldiv@new_exp,w
  8545     0618  00E2               	movwf	___fldiv@bexp
  8546     0619                     l2665:
  8547     0619  1C62               	btfss	___fldiv@bexp,0
  8548     061A  2E1C               	goto	u2391
  8549     061B  2E1D               	goto	u2390
  8550     061C                     u2391:
  8551     061C  2E1F               	goto	l2669
  8552     061D                     u2390:
  8553     061D                     l2667:
  8554     061D  17D0               	bsf	___fldiv@b+2,7
  8555     061E  2E23               	goto	l1140
  8556     061F                     l2669:
  8557     061F  307F               	movlw	127
  8558     0620  00D2               	movwf	??___fldiv
  8559     0621  0852               	movf	??___fldiv,w
  8560     0622  05D0               	andwf	___fldiv@b+2,f
  8561     0623                     l1140:
  8562     0623  3662               	lsrf	___fldiv@bexp,w
  8563     0624  00D1               	movwf	___fldiv@b+3
  8564     0625  085B               	movf	___fldiv@sign,w
  8565     0626  00D2               	movwf	??___fldiv
  8566     0627  0852               	movf	??___fldiv,w
  8567     0628  04D1               	iorwf	___fldiv@b+3,f
  8568     0629  2CEA               	goto	l2579
  8569     062A                     l1118:
  8570     062A  0008               	return
  8571     062B                     __end_of___fldiv:
  8572                           
  8573                           	psect	intentry
  8574     0004                     __pintentry:	
  8575 ;; *************** function _INTERRUPT_InterruptManager *****************
  8576 ;; Defined at:
  8577 ;;		line 52 in file "mcc_generated_files/interrupt_manager.c"
  8578 ;; Parameters:    Size  Location     Type
  8579 ;;		None
  8580 ;; Auto vars:     Size  Location     Type
  8581 ;;		None
  8582 ;; Return value:  Size  Location     Type
  8583 ;;                  1    wreg      void 
  8584 ;; Registers used:
  8585 ;;		wreg, status,2, status,0, pclath, cstack
  8586 ;; Tracked objects:
  8587 ;;		On entry : 0/0
  8588 ;;		On exit  : 0/0
  8589 ;;		Unchanged: 0/0
  8590 ;; Data sizes:     COMMON   BANK0   BANK1   BANK2   BANK3   BANK4
  8591 ;;      Params:         0       0       0       0       0       0
  8592 ;;      Locals:         0       0       0       0       0       0
  8593 ;;      Temps:          0       0       0       0       0       0
  8594 ;;      Totals:         0       0       0       0       0       0
  8595 ;;Total ram usage:        0 bytes
  8596 ;; Hardware stack levels used: 1
  8597 ;; Hardware stack levels required when called: 2
  8598 ;; This function calls:
  8599 ;;		_ADC_ISR
  8600 ;;		_TMR2_ISR
  8601 ;; This function is called by:
  8602 ;;		Interrupt level 1
  8603 ;; This function uses a non-reentrant model
  8604 ;;
  8605                           
  8606     0004                     _INTERRUPT_InterruptManager:
  8607                           
  8608                           ;incstack = 0
  8609     0004  147E               	bsf	int$flags,0	;set compiler interrupt flag (level 1)
  8610                           
  8611                           ; Regs used in _INTERRUPT_InterruptManager: [wreg+status,2+status,0+pclath+cstack]
  8612     0005  3180               	pagesel	$
  8613     0006                     i1l3033:
  8614                           
  8615                           ;mcc_generated_files/interrupt_manager.c: 55:     if(INTCONbits.PEIE == 1)
  8616     0006  1F0B               	btfss	11,6	;volatile
  8617     0007  2809               	goto	u295_21
  8618     0008  280A               	goto	u295_20
  8619     0009                     u295_21:
  8620     0009  2826               	goto	i1l280
  8621     000A                     u295_20:
  8622     000A                     i1l3035:
  8623                           
  8624                           ;mcc_generated_files/interrupt_manager.c: 56:     {;mcc_generated_files/interrupt_manage
      +                          r.c: 57:         if(PIE1bits.ADIE == 1 && PIR1bits.ADIF == 1)
  8625     000A  0021               	movlb	1	; select bank1
  8626     000B  1F11               	btfss	17,6	;volatile
  8627     000C  280E               	goto	u296_21
  8628     000D  280F               	goto	u296_20
  8629     000E                     u296_21:
  8630     000E  2818               	goto	i1l275
  8631     000F                     u296_20:
  8632     000F                     i1l3037:
  8633     000F  0020               	movlb	0	; select bank0
  8634     0010  1F11               	btfss	17,6	;volatile
  8635     0011  2813               	goto	u297_21
  8636     0012  2814               	goto	u297_20
  8637     0013                     u297_21:
  8638     0013  2818               	goto	i1l275
  8639     0014                     u297_20:
  8640     0014                     i1l3039:
  8641                           
  8642                           ;mcc_generated_files/interrupt_manager.c: 58:         {;mcc_generated_files/interrupt_ma
      +                          nager.c: 59:             ADC_ISR();
  8643     0014  318B  23B0  3180   	fcall	_ADC_ISR
  8644                           
  8645                           ;mcc_generated_files/interrupt_manager.c: 60:         }
  8646     0017  2826               	goto	i1l280
  8647     0018                     i1l275:	
  8648                           ;mcc_generated_files/interrupt_manager.c: 61:         else if(PIE1bits.TMR2IE == 1 && PI
      +                          R1bits.TMR2IF == 1)
  8649                           
  8650     0018  0021               	movlb	1	; select bank1
  8651     0019  1C91               	btfss	17,1	;volatile
  8652     001A  281C               	goto	u298_21
  8653     001B  281D               	goto	u298_20
  8654     001C                     u298_21:
  8655     001C  2826               	goto	i1l276
  8656     001D                     u298_20:
  8657     001D                     i1l3041:
  8658     001D  0020               	movlb	0	; select bank0
  8659     001E  1C91               	btfss	17,1	;volatile
  8660     001F  2821               	goto	u299_21
  8661     0020  2822               	goto	u299_20
  8662     0021                     u299_21:
  8663     0021  2826               	goto	i1l276
  8664     0022                     u299_20:
  8665     0022                     i1l3043:
  8666                           
  8667                           ;mcc_generated_files/interrupt_manager.c: 62:         {;mcc_generated_files/interrupt_ma
      +                          nager.c: 63:             TMR2_ISR();
  8668     0022  318B  23BF  3180   	fcall	_TMR2_ISR
  8669                           
  8670                           ;mcc_generated_files/interrupt_manager.c: 64:         }
  8671     0025  2826               	goto	i1l280
  8672     0026                     i1l276:
  8673     0026                     i1l280:	
  8674                           ;mcc_generated_files/interrupt_manager.c: 69:     }
  8675                           
  8676     0026  107E               	bcf	int$flags,0	;clear compiler interrupt flag (level 1)
  8677     0027  0009               	retfie
  8678     0028                     __end_of_INTERRUPT_InterruptManager:
  8679                           
  8680                           	psect	text39
  8681     0BBF                     __ptext39:	
  8682 ;; *************** function _TMR2_ISR *****************
  8683 ;; Defined at:
  8684 ;;		line 119 in file "mcc_generated_files/tmr2.c"
  8685 ;; Parameters:    Size  Location     Type
  8686 ;;		None
  8687 ;; Auto vars:     Size  Location     Type
  8688 ;;		None
  8689 ;; Return value:  Size  Location     Type
  8690 ;;                  1    wreg      void 
  8691 ;; Registers used:
  8692 ;;		wreg, status,2, status,0, pclath, cstack
  8693 ;; Tracked objects:
  8694 ;;		On entry : 0/0
  8695 ;;		On exit  : 0/0
  8696 ;;		Unchanged: 0/0
  8697 ;; Data sizes:     COMMON   BANK0   BANK1   BANK2   BANK3   BANK4
  8698 ;;      Params:         0       0       0       0       0       0
  8699 ;;      Locals:         0       0       0       0       0       0
  8700 ;;      Temps:          0       0       0       0       0       0
  8701 ;;      Totals:         0       0       0       0       0       0
  8702 ;;Total ram usage:        0 bytes
  8703 ;; Hardware stack levels used: 1
  8704 ;; Hardware stack levels required when called: 1
  8705 ;; This function calls:
  8706 ;;		Absolute function
  8707 ;;		_TMR2_DefaultInterruptHandler
  8708 ;;		_miatenciontmr2
  8709 ;; This function is called by:
  8710 ;;		_INTERRUPT_InterruptManager
  8711 ;; This function uses a non-reentrant model
  8712 ;;
  8713                           
  8714     0BBF                     _TMR2_ISR:	
  8715                           ;psect for function _TMR2_ISR
  8716                           
  8717     0BBF                     i1l2889:	
  8718                           ;incstack = 0
  8719                           ; Regs used in _TMR2_ISR: [wreg+status,2+status,0+pclath+cstack]
  8720                           
  8721                           
  8722                           ;mcc_generated_files/tmr2.c: 123:     PIR1bits.TMR2IF = 0;
  8723     0BBF  0020               	movlb	0	; select bank0
  8724     0BC0  1091               	bcf	17,1	;volatile
  8725     0BC1                     i1l2891:
  8726                           
  8727                           ;mcc_generated_files/tmr2.c: 125:     if(TMR2_InterruptHandler)
  8728     0BC1  0021               	movlb	1	; select bank1
  8729     0BC2  084F               	movf	_TMR2_InterruptHandler^(0+128),w
  8730     0BC3  0450               	iorwf	(_TMR2_InterruptHandler+1)^(0+128),w
  8731     0BC4  1903               	btfsc	3,2
  8732     0BC5  2BC7               	goto	u283_21
  8733     0BC6  2BC8               	goto	u283_20
  8734     0BC7                     u283_21:
  8735     0BC7  2BCD               	goto	i1l253
  8736     0BC8                     u283_20:
  8737     0BC8                     i1l2893:
  8738                           
  8739                           ;mcc_generated_files/tmr2.c: 126:     {;mcc_generated_files/tmr2.c: 127:         TMR2_In
      +                          terruptHandler();
  8740     0BC8  0850               	movf	(_TMR2_InterruptHandler+1)^(0+128),w
  8741     0BC9  008A               	movwf	10
  8742     0BCA  084F               	movf	_TMR2_InterruptHandler^(0+128),w
  8743     0BCB  000A               	callw
  8744     0BCC  318B               	pagesel	$
  8745     0BCD                     i1l253:
  8746     0BCD  0008               	return
  8747     0BCE                     __end_of_TMR2_ISR:
  8748                           
  8749                           	psect	text40
  8750     07FF                     __ptext40:	
  8751 ;; *************** function _TMR2_DefaultInterruptHandler *****************
  8752 ;; Defined at:
  8753 ;;		line 136 in file "mcc_generated_files/tmr2.c"
  8754 ;; Parameters:    Size  Location     Type
  8755 ;;		None
  8756 ;; Auto vars:     Size  Location     Type
  8757 ;;		None
  8758 ;; Return value:  Size  Location     Type
  8759 ;;                  1    wreg      void 
  8760 ;; Registers used:
  8761 ;;		None
  8762 ;; Tracked objects:
  8763 ;;		On entry : 0/0
  8764 ;;		On exit  : 0/0
  8765 ;;		Unchanged: 0/0
  8766 ;; Data sizes:     COMMON   BANK0   BANK1   BANK2   BANK3   BANK4
  8767 ;;      Params:         0       0       0       0       0       0
  8768 ;;      Locals:         0       0       0       0       0       0
  8769 ;;      Temps:          0       0       0       0       0       0
  8770 ;;      Totals:         0       0       0       0       0       0
  8771 ;;Total ram usage:        0 bytes
  8772 ;; Hardware stack levels used: 1
  8773 ;; This function calls:
  8774 ;;		Nothing
  8775 ;; This function is called by:
  8776 ;;		_TMR2_Initialize
  8777 ;;		_TMR2_ISR
  8778 ;; This function uses a non-reentrant model
  8779 ;;
  8780                           
  8781     07FF                     _TMR2_DefaultInterruptHandler:	
  8782                           ;psect for function _TMR2_DefaultInterruptHandler
  8783                           
  8784     07FF                     i1l259:	
  8785                           ;incstack = 0
  8786                           ; Regs used in _TMR2_DefaultInterruptHandler: []
  8787                           
  8788     07FF  0008               	return
  8789     0800                     __end_of_TMR2_DefaultInterruptHandler:
  8790                           
  8791                           	psect	text41
  8792     0B48                     __ptext41:	
  8793 ;; *************** function _miatenciontmr2 *****************
  8794 ;; Defined at:
  8795 ;;		line 20 in file "main.c"
  8796 ;; Parameters:    Size  Location     Type
  8797 ;;		None
  8798 ;; Auto vars:     Size  Location     Type
  8799 ;;		None
  8800 ;; Return value:  Size  Location     Type
  8801 ;;                  1    wreg      void 
  8802 ;; Registers used:
  8803 ;;		wreg
  8804 ;; Tracked objects:
  8805 ;;		On entry : 0/0
  8806 ;;		On exit  : 0/0
  8807 ;;		Unchanged: 0/0
  8808 ;; Data sizes:     COMMON   BANK0   BANK1   BANK2   BANK3   BANK4
  8809 ;;      Params:         0       0       0       0       0       0
  8810 ;;      Locals:         0       0       0       0       0       0
  8811 ;;      Temps:          0       0       0       0       0       0
  8812 ;;      Totals:         0       0       0       0       0       0
  8813 ;;Total ram usage:        0 bytes
  8814 ;; Hardware stack levels used: 1
  8815 ;; This function calls:
  8816 ;;		Nothing
  8817 ;; This function is called by:
  8818 ;;		_main
  8819 ;;		_TMR2_ISR
  8820 ;; This function uses a non-reentrant model
  8821 ;;
  8822                           
  8823     0B48                     _miatenciontmr2:	
  8824                           ;psect for function _miatenciontmr2
  8825                           
  8826     0B48                     i1l2479:	
  8827                           ;incstack = 0
  8828                           ; Regs used in _miatenciontmr2: [wreg]
  8829                           
  8830                           
  8831                           ;main.c: 21:     VGAIT=1;
  8832     0B48  3001               	movlw	1
  8833     0B49  0021               	movlb	1	; select bank1
  8834     0B4A  00CD               	movwf	_VGAIT^(0+128)	;volatile
  8835     0B4B                     i1l333:
  8836     0B4B  0008               	return
  8837     0B4C                     __end_of_miatenciontmr2:
  8838                           
  8839                           	psect	text42
  8840     0BB0                     __ptext42:	
  8841 ;; *************** function _ADC_ISR *****************
  8842 ;; Defined at:
  8843 ;;		line 145 in file "mcc_generated_files/adc.c"
  8844 ;; Parameters:    Size  Location     Type
  8845 ;;		None
  8846 ;; Auto vars:     Size  Location     Type
  8847 ;;		None
  8848 ;; Return value:  Size  Location     Type
  8849 ;;                  1    wreg      void 
  8850 ;; Registers used:
  8851 ;;		wreg, status,2, status,0, pclath, cstack
  8852 ;; Tracked objects:
  8853 ;;		On entry : 0/0
  8854 ;;		On exit  : 0/0
  8855 ;;		Unchanged: 0/0
  8856 ;; Data sizes:     COMMON   BANK0   BANK1   BANK2   BANK3   BANK4
  8857 ;;      Params:         0       0       0       0       0       0
  8858 ;;      Locals:         0       0       0       0       0       0
  8859 ;;      Temps:          0       0       0       0       0       0
  8860 ;;      Totals:         0       0       0       0       0       0
  8861 ;;Total ram usage:        0 bytes
  8862 ;; Hardware stack levels used: 1
  8863 ;; Hardware stack levels required when called: 1
  8864 ;; This function calls:
  8865 ;;		Absolute function
  8866 ;;		_ADC_DefaultInterruptHandler
  8867 ;;		_miatencionadc
  8868 ;; This function is called by:
  8869 ;;		_INTERRUPT_InterruptManager
  8870 ;; This function uses a non-reentrant model
  8871 ;;
  8872                           
  8873     0BB0                     _ADC_ISR:	
  8874                           ;psect for function _ADC_ISR
  8875                           
  8876     0BB0                     i1l2883:	
  8877                           ;incstack = 0
  8878                           ; Regs used in _ADC_ISR: [wreg+status,2+status,0+pclath+cstack]
  8879                           
  8880                           
  8881                           ;mcc_generated_files/adc.c: 148:     PIR1bits.ADIF = 0;
  8882     0BB0  0020               	movlb	0	; select bank0
  8883     0BB1  1311               	bcf	17,6	;volatile
  8884     0BB2                     i1l2885:
  8885                           
  8886                           ;mcc_generated_files/adc.c: 150:  if(ADC_InterruptHandler)
  8887     0BB2  0021               	movlb	1	; select bank1
  8888     0BB3  0851               	movf	_ADC_InterruptHandler^(0+128),w
  8889     0BB4  0452               	iorwf	(_ADC_InterruptHandler+1)^(0+128),w
  8890     0BB5  1903               	btfsc	3,2
  8891     0BB6  2BB8               	goto	u282_21
  8892     0BB7  2BB9               	goto	u282_20
  8893     0BB8                     u282_21:
  8894     0BB8  2BBE               	goto	i1l197
  8895     0BB9                     u282_20:
  8896     0BB9                     i1l2887:
  8897                           
  8898                           ;mcc_generated_files/adc.c: 151:     {;mcc_generated_files/adc.c: 152:         ADC_Inter
      +                          ruptHandler();
  8899     0BB9  0852               	movf	(_ADC_InterruptHandler+1)^(0+128),w
  8900     0BBA  008A               	movwf	10
  8901     0BBB  0851               	movf	_ADC_InterruptHandler^(0+128),w
  8902     0BBC  000A               	callw
  8903     0BBD  318B               	pagesel	$
  8904     0BBE                     i1l197:
  8905     0BBE  0008               	return
  8906     0BBF                     __end_of_ADC_ISR:
  8907                           
  8908                           	psect	text43
  8909     0003                     __ptext43:	
  8910 ;; *************** function _ADC_DefaultInterruptHandler *****************
  8911 ;; Defined at:
  8912 ;;		line 160 in file "mcc_generated_files/adc.c"
  8913 ;; Parameters:    Size  Location     Type
  8914 ;;		None
  8915 ;; Auto vars:     Size  Location     Type
  8916 ;;		None
  8917 ;; Return value:  Size  Location     Type
  8918 ;;                  1    wreg      void 
  8919 ;; Registers used:
  8920 ;;		None
  8921 ;; Tracked objects:
  8922 ;;		On entry : 0/0
  8923 ;;		On exit  : 0/0
  8924 ;;		Unchanged: 0/0
  8925 ;; Data sizes:     COMMON   BANK0   BANK1   BANK2   BANK3   BANK4
  8926 ;;      Params:         0       0       0       0       0       0
  8927 ;;      Locals:         0       0       0       0       0       0
  8928 ;;      Temps:          0       0       0       0       0       0
  8929 ;;      Totals:         0       0       0       0       0       0
  8930 ;;Total ram usage:        0 bytes
  8931 ;; Hardware stack levels used: 1
  8932 ;; This function calls:
  8933 ;;		Nothing
  8934 ;; This function is called by:
  8935 ;;		_ADC_Initialize
  8936 ;;		_ADC_ISR
  8937 ;; This function uses a non-reentrant model
  8938 ;;
  8939                           
  8940     0003                     _ADC_DefaultInterruptHandler:	
  8941                           ;psect for function _ADC_DefaultInterruptHandler
  8942                           
  8943     0003                     i1l203:	
  8944                           ;incstack = 0
  8945                           ; Regs used in _ADC_DefaultInterruptHandler: []
  8946                           
  8947     0003  0008               	return
  8948     0004                     __end_of_ADC_DefaultInterruptHandler:
  8949                           
  8950                           	psect	text44
  8951     0B44                     __ptext44:	
  8952 ;; *************** function _miatencionadc *****************
  8953 ;; Defined at:
  8954 ;;		line 24 in file "main.c"
  8955 ;; Parameters:    Size  Location     Type
  8956 ;;		None
  8957 ;; Auto vars:     Size  Location     Type
  8958 ;;		None
  8959 ;; Return value:  Size  Location     Type
  8960 ;;                  1    wreg      void 
  8961 ;; Registers used:
  8962 ;;		wreg
  8963 ;; Tracked objects:
  8964 ;;		On entry : 0/0
  8965 ;;		On exit  : 0/0
  8966 ;;		Unchanged: 0/0
  8967 ;; Data sizes:     COMMON   BANK0   BANK1   BANK2   BANK3   BANK4
  8968 ;;      Params:         0       0       0       0       0       0
  8969 ;;      Locals:         0       0       0       0       0       0
  8970 ;;      Temps:          0       0       0       0       0       0
  8971 ;;      Totals:         0       0       0       0       0       0
  8972 ;;Total ram usage:        0 bytes
  8973 ;; Hardware stack levels used: 1
  8974 ;; This function calls:
  8975 ;;		Nothing
  8976 ;; This function is called by:
  8977 ;;		_main
  8978 ;;		_ADC_ISR
  8979 ;; This function uses a non-reentrant model
  8980 ;;
  8981                           
  8982     0B44                     _miatencionadc:	
  8983                           ;psect for function _miatencionadc
  8984                           
  8985     0B44                     i1l2481:	
  8986                           ;incstack = 0
  8987                           ; Regs used in _miatencionadc: [wreg]
  8988                           
  8989                           
  8990                           ;main.c: 25:     VGAI_adc=1;
  8991     0B44  3001               	movlw	1
  8992     0B45  0021               	movlb	1	; select bank1
  8993     0B46  00CC               	movwf	_VGAI_adc^(0+128)	;volatile
  8994     0B47                     i1l336:
  8995     0B47  0008               	return
  8996     0B48                     __end_of_miatencionadc:
  8997     007E                     btemp	set	126	;btemp
  8998     007E                     int$flags	set	126
  8999     007E                     wtemp0	set	126
  9000                           
  9001                           	psect	idloc
  9002                           
  9003                           ;Config register IDLOC0 @ 0x8000
  9004                           ;	unspecified, using default values
  9005     8000                     	org	32768
  9006     8000  3FFF               	dw	16383
  9007                           
  9008                           ;Config register IDLOC1 @ 0x8001
  9009                           ;	unspecified, using default values
  9010     8001                     	org	32769
  9011     8001  3FFF               	dw	16383
  9012                           
  9013                           ;Config register IDLOC2 @ 0x8002
  9014                           ;	unspecified, using default values
  9015     8002                     	org	32770
  9016     8002  3FFF               	dw	16383
  9017                           
  9018                           ;Config register IDLOC3 @ 0x8003
  9019                           ;	unspecified, using default values
  9020     8003                     	org	32771
  9021     8003  3FFF               	dw	16383
  9022                           
  9023                           	psect	config
  9024                           
  9025                           ;Config register CONFIG1 @ 0x8007
  9026                           ;	Oscillator Selection
  9027                           ;	FOSC = INTOSC, INTOSC oscillator: I/O function on CLKIN pin
  9028                           ;	Watchdog Timer Enable
  9029                           ;	WDTE = OFF, WDT disabled
  9030                           ;	Power-up Timer Enable
  9031                           ;	PWRTE = OFF, PWRT disabled
  9032                           ;	MCLR Pin Function Select
  9033                           ;	MCLRE = ON, MCLR/VPP pin function is MCLR
  9034                           ;	Flash Program Memory Code Protection
  9035                           ;	CP = OFF, Program memory code protection is disabled
  9036                           ;	Data Memory Code Protection
  9037                           ;	CPD = OFF, Data memory code protection is disabled
  9038                           ;	Brown-out Reset Enable
  9039                           ;	BOREN = ON, Brown-out Reset enabled
  9040                           ;	Clock Out Enable
  9041                           ;	CLKOUTEN = OFF, CLKOUT function is disabled. I/O or oscillator function on the CLKOUT 
      +                          pin
  9042                           ;	Internal/External Switchover
  9043                           ;	IESO = ON, Internal/External Switchover mode is enabled
  9044                           ;	Fail-Safe Clock Monitor Enable
  9045                           ;	FCMEN = ON, Fail-Safe Clock Monitor is enabled
  9046     8007                     	org	32775
  9047     8007  3FE4               	dw	16356
  9048                           
  9049                           ;Config register CONFIG2 @ 0x8008
  9050                           ;	Flash Memory Self-Write Protection
  9051                           ;	WRT = OFF, Write protection off
  9052                           ;	PLL Enable
  9053                           ;	PLLEN = OFF, 4x PLL disabled
  9054                           ;	Stack Overflow/Underflow Reset Enable
  9055                           ;	STVREN = ON, Stack Overflow or Underflow will cause a Reset
  9056                           ;	Brown-out Reset Voltage Selection
  9057                           ;	BORV = LO, Brown-out Reset Voltage (Vbor), low trip point selected.
  9058                           ;	Low-Voltage Programming Enable
  9059                           ;	LVP = ON, Low-voltage programming enabled
  9060     8008                     	org	32776
  9061     8008  3EFF               	dw	16127

Data Sizes:
    Strings     0
    Constant    0
    Data        0
    BSS         11
    Persistent  42
    Stack       0

Auto Spaces:
    Space          Size  Autos    Used
    COMMON           14     14      14
    BANK0            80     80      80
    BANK1            80     36      57
    BANK2            80      0       0
    BANK3            80      0       0
    BANK4            48      0       0

Pointer List with Targets:

    enviarsiguiente_Dato@ser	PTR struct Sr_Serial size(1) Largest target is 10
		 -> main@miserial(BANK1[10]), 

    llenar_registros_del_Serial@ser	PTR struct Sr_Serial size(1) Largest target is 10
		 -> main@miserial(BANK1[10]), 

    tengodatos_PorEnviar@ser	PTR struct Sr_Serial size(1) Largest target is 10
		 -> main@miserial(BANK1[10]), 

    inicializar_nuestroserial@ser	PTR struct Sr_Serial size(1) Largest target is 10
		 -> main@miserial(BANK1[10]), 

    mostrar_Display@dis	PTR struct Ds_Display size(1) Largest target is 5
		 -> main@miDisplay(BANK1[5]), 

    ADC2Display@dis	PTR struct Ds_Display size(1) Largest target is 5
		 -> main@miDisplay(BANK1[5]), 

    inicializar_nuestro_Display@dis	PTR struct Ds_Display size(1) Largest target is 5
		 -> main@miDisplay(BANK1[5]), 

    Tm_Baje_periodico@ctp	PTR struct Tm_Periodico size(1) Largest target is 7
		 -> main@timer_ADC(BANK1[7]), 

    Tm_Hubo_periodico@ctp	PTR struct Tm_Periodico size(1) Largest target is 7
		 -> main@timer_ADC(BANK1[7]), 

    Tm_Procese_tiempo@ctp	PTR struct Tm_Periodico size(1) Largest target is 7
		 -> main@timer_ADC(BANK1[7]), 

    Tm_Inicie_periodico@ctp	PTR struct Tm_Periodico size(1) Largest target is 7
		 -> main@timer_ADC(BANK1[7]), 

    TMR2_SetInterruptHandler@InterruptHandler	PTR FTN()void  size(2) Largest target is 1
		 -> miatenciontmr2(), TMR2_DefaultInterruptHandler(), 

    TMR2_InterruptHandler	PTR FTN()void  size(2) Largest target is 1
		 -> miatenciontmr2(), TMR2_DefaultInterruptHandler(), Absolute function(), 

    ADC_SetInterruptHandler@InterruptHandler	PTR FTN()void  size(2) Largest target is 1
		 -> miatencionadc(), ADC_DefaultInterruptHandler(), 

    ADC_InterruptHandler	PTR FTN()void  size(2) Largest target is 1
		 -> miatencionadc(), Absolute function(), ADC_DefaultInterruptHandler(), 

    EUSART_SetErrorHandler@interruptHandler	PTR FTN()void  size(2) Largest target is 1
		 -> EUSART_DefaultErrorHandler(), 

    EUSART_ErrorHandler	PTR FTN()void  size(2) Largest target is 1
		 -> Absolute function(), EUSART_DefaultErrorHandler(), 

    EUSART_SetOverrunErrorHandler@interruptHandler	PTR FTN()void  size(2) Largest target is 1
		 -> EUSART_DefaultOverrunErrorHandler(), 

    EUSART_OverrunErrorHandler	PTR FTN()void  size(2) Largest target is 1
		 -> Absolute function(), EUSART_DefaultOverrunErrorHandler(), 

    EUSART_SetFramingErrorHandler@interruptHandler	PTR FTN()void  size(2) Largest target is 1
		 -> EUSART_DefaultFramingErrorHandler(), 

    EUSART_FramingErrorHandler	PTR FTN()void  size(2) Largest target is 1
		 -> Absolute function(), EUSART_DefaultFramingErrorHandler(), 


Critical Paths under _main in COMMON

    _mostrar_Display->_Prender_seg
    _enviarsiguiente_Dato->_EUSART_Write
    _TMR2_Initialize->_TMR2_SetInterruptHandler
    _EUSART_Initialize->_EUSART_SetErrorHandler
    _EUSART_Initialize->_EUSART_SetFramingErrorHandler
    _EUSART_Initialize->_EUSART_SetOverrunErrorHandler
    _ADC_Initialize->_ADC_SetInterruptHandler
    _ADC2Display->___xxtofl
    ___fltol->___xxtofl
    ___flsub->___xxtofl
    ___flmul->___xxtofl
    ___fldiv->___xxtofl

Critical Paths under _INTERRUPT_InterruptManager in COMMON

    None.

Critical Paths under _main in BANK0

    _main->_ADC2Display
    _ADC2Display->___fltol
    ___fltol->___fldiv
    ___flsub->___fladd
    ___flmul->___flsub
    ___fldiv->___flmul

Critical Paths under _INTERRUPT_InterruptManager in BANK0

    None.

Critical Paths under _main in BANK1

    _main->_ADC2Display

Critical Paths under _INTERRUPT_InterruptManager in BANK1

    None.

Critical Paths under _main in BANK2

    None.

Critical Paths under _INTERRUPT_InterruptManager in BANK2

    None.

Critical Paths under _main in BANK3

    None.

Critical Paths under _INTERRUPT_InterruptManager in BANK3

    None.

Critical Paths under _main in BANK4

    None.

Critical Paths under _INTERRUPT_InterruptManager in BANK4

    None.

Call Graph Tables:

 ---------------------------------------------------------------------------------
 (Depth) Function   	        Calls       Base Space   Used Autos Params    Refs
 ---------------------------------------------------------------------------------
 (0) _main                                                23    23      0   12017
                                             14 BANK1     22    22      0
                        _ADC2Display
            _ADC_GetConversionResult
               _ADC_IsConversionDone
            _ADC_SetInterruptHandler
                _ADC_StartConversion
                 _EUSART_is_tx_ready
                  _SYSTEM_Initialize
           _TMR2_SetInterruptHandler
                  _Tm_Baje_periodico
                  _Tm_Hubo_periodico
                _Tm_Inicie_periodico
                  _Tm_Procese_tiempo
               _enviarsiguiente_Dato
        _inicializar_nuestro_Display
          _inicializar_nuestroserial
        _llenar_registros_del_Serial
                    _mostrar_Display
               _tengodatos_PorEnviar
 ---------------------------------------------------------------------------------
 (1) _tengodatos_PorEnviar                                 1     1      0      55
                                              0 COMMON     1     1      0
 ---------------------------------------------------------------------------------
 (1) _mostrar_Display                                      5     3      2     604
                                              2 COMMON     5     3      2
                        _Prender_seg
 ---------------------------------------------------------------------------------
 (2) _Prender_seg                                          2     0      2     250
                                              0 COMMON     2     0      2
 ---------------------------------------------------------------------------------
 (1) _llenar_registros_del_Serial                          4     1      3     613
                                              0 COMMON     4     1      3
 ---------------------------------------------------------------------------------
 (1) _inicializar_nuestroserial                            2     2      0     143
                                              0 COMMON     2     2      0
 ---------------------------------------------------------------------------------
 (1) _inicializar_nuestro_Display                          1     1      0     121
                                              0 COMMON     1     1      0
 ---------------------------------------------------------------------------------
 (1) _enviarsiguiente_Dato                                 2     2      0     121
                                              1 COMMON     2     2      0
                       _EUSART_Write
 ---------------------------------------------------------------------------------
 (2) _EUSART_Write                                         1     1      0      22
                                              0 COMMON     1     1      0
 ---------------------------------------------------------------------------------
 (1) _Tm_Procese_tiempo                                    5     5      0     231
                                              0 COMMON     5     5      0
 ---------------------------------------------------------------------------------
 (1) _Tm_Inicie_periodico                                  4     2      2     219
                                              0 COMMON     4     2      2
 ---------------------------------------------------------------------------------
 (1) _Tm_Hubo_periodico                                    1     1      0      55
                                              0 COMMON     1     1      0
 ---------------------------------------------------------------------------------
 (1) _Tm_Baje_periodico                                    2     2      0      55
                                              0 COMMON     2     2      0
 ---------------------------------------------------------------------------------
 (1) _SYSTEM_Initialize                                    0     0      0     642
                     _ADC_Initialize
                  _EUSART_Initialize
                     _FVR_Initialize
              _OSCILLATOR_Initialize
             _PIN_MANAGER_Initialize
                    _TMR2_Initialize
                     _WDT_Initialize
 ---------------------------------------------------------------------------------
 (2) _WDT_Initialize                                       0     0      0       0
 ---------------------------------------------------------------------------------
 (2) _TMR2_Initialize                                      0     0      0     174
           _TMR2_SetInterruptHandler
 ---------------------------------------------------------------------------------
 (1) _TMR2_SetInterruptHandler                             2     0      2     174
                                              0 COMMON     2     0      2
 ---------------------------------------------------------------------------------
 (2) _PIN_MANAGER_Initialize                               0     0      0       0
 ---------------------------------------------------------------------------------
 (2) _OSCILLATOR_Initialize                                0     0      0       0
 ---------------------------------------------------------------------------------
 (2) _FVR_Initialize                                       0     0      0       0
 ---------------------------------------------------------------------------------
 (2) _EUSART_Initialize                                    0     0      0     294
             _EUSART_SetErrorHandler
      _EUSART_SetFramingErrorHandler
      _EUSART_SetOverrunErrorHandler
 ---------------------------------------------------------------------------------
 (3) _EUSART_SetOverrunErrorHandler                        2     0      2      98
                                              0 COMMON     2     0      2
 ---------------------------------------------------------------------------------
 (3) _EUSART_SetFramingErrorHandler                        2     0      2      98
                                              0 COMMON     2     0      2
 ---------------------------------------------------------------------------------
 (3) _EUSART_SetErrorHandler                               2     0      2      98
                                              0 COMMON     2     0      2
 ---------------------------------------------------------------------------------
 (2) _ADC_Initialize                                       0     0      0     174
            _ADC_SetInterruptHandler
 ---------------------------------------------------------------------------------
 (3) _ADC_SetInterruptHandler                              2     0      2     174
                                              0 COMMON     2     0      2
 ---------------------------------------------------------------------------------
 (1) _EUSART_is_tx_ready                                   1     1      0      24
                                              0 COMMON     1     1      0
 ---------------------------------------------------------------------------------
 (1) _ADC_StartConversion                                  0     0      0       0
 ---------------------------------------------------------------------------------
 (1) _ADC_IsConversionDone                                 0     0      0       0
 ---------------------------------------------------------------------------------
 (1) _ADC_GetConversionResult                              2     0      2       0
                                              0 COMMON     2     0      2
 ---------------------------------------------------------------------------------
 (1) _ADC2Display                                         16    14      2    8374
                                             78 BANK0      2     0      2
                                              0 BANK1     14    14      0
                            ___fldiv
                            ___flmul
                            ___flsub
                            ___fltol
                           ___xxtofl
 ---------------------------------------------------------------------------------
 (2) ___xxtofl                                            14    10      4     626
                                              0 COMMON    14    10      4
 ---------------------------------------------------------------------------------
 (2) ___fltol                                             10     6      4     457
                                             68 BANK0     10     6      4
                            ___fldiv (ARG)
                            ___flmul (ARG)
                            ___flsub (ARG)
                           ___xxtofl (ARG)
 ---------------------------------------------------------------------------------
 (2) ___flsub                                              8     0      8    2637
                                              8 BANK0      8     0      8
                            ___fladd
                           ___xxtofl (ARG)
 ---------------------------------------------------------------------------------
 (3) ___fladd                                             20    12      8    2136
                                              0 COMMON    12     4      8
                                              0 BANK0      8     8      0
 ---------------------------------------------------------------------------------
 (2) ___flmul                                             26    18      8    2721
                                             16 BANK0     26    18      8
                          __Umul8_16
                            ___flsub (ARG)
                           ___xxtofl (ARG)
 ---------------------------------------------------------------------------------
 (3) __Umul8_16                                            9     7      2     799
                                              0 COMMON     9     7      2
 ---------------------------------------------------------------------------------
 (2) ___fldiv                                             26    18      8    1425
                                             42 BANK0     26    18      8
                            ___flmul (ARG)
                            ___flsub (ARG)
                           ___xxtofl (ARG)
 ---------------------------------------------------------------------------------
 Estimated maximum stack depth 3
 ---------------------------------------------------------------------------------
 (Depth) Function   	        Calls       Base Space   Used Autos Params    Refs
 ---------------------------------------------------------------------------------
 (4) _INTERRUPT_InterruptManager                           0     0      0       0
                            _ADC_ISR
                           _TMR2_ISR
 ---------------------------------------------------------------------------------
 (5) _TMR2_ISR                                             0     0      0       0
                   Absolute function *
       _TMR2_DefaultInterruptHandler *
                     _miatenciontmr2 *
 ---------------------------------------------------------------------------------
 (6) _miatenciontmr2                                       0     0      0       0
 ---------------------------------------------------------------------------------
 (6) _TMR2_DefaultInterruptHandler                         0     0      0       0
 ---------------------------------------------------------------------------------
 (5) _ADC_ISR                                              0     0      0       0
                   Absolute function *
        _ADC_DefaultInterruptHandler *
                      _miatencionadc *
 ---------------------------------------------------------------------------------
 (6) _miatencionadc                                        0     0      0       0
 ---------------------------------------------------------------------------------
 (6) _ADC_DefaultInterruptHandler                          0     0      0       0
 ---------------------------------------------------------------------------------
 (6) Absolute function(Fake)                               0     0      0       0
 ---------------------------------------------------------------------------------
 Estimated maximum stack depth 6
 ---------------------------------------------------------------------------------

 Call Graph Graphs:

 _main (ROOT)
   _ADC2Display
     ___fldiv
       ___flmul (ARG)
         __Umul8_16
         ___flsub (ARG)
           ___fladd
           ___xxtofl (ARG)
         ___xxtofl (ARG)
       ___flsub (ARG)
       ___xxtofl (ARG)
     ___flmul
     ___flsub
     ___fltol
       ___fldiv (ARG)
       ___flmul (ARG)
       ___flsub (ARG)
       ___xxtofl (ARG)
     ___xxtofl
   _ADC_GetConversionResult
   _ADC_IsConversionDone
   _ADC_SetInterruptHandler
   _ADC_StartConversion
   _EUSART_is_tx_ready
   _SYSTEM_Initialize
     _ADC_Initialize
       _ADC_SetInterruptHandler
     _EUSART_Initialize
       _EUSART_SetErrorHandler
       _EUSART_SetFramingErrorHandler
       _EUSART_SetOverrunErrorHandler
     _FVR_Initialize
     _OSCILLATOR_Initialize
     _PIN_MANAGER_Initialize
     _TMR2_Initialize
       _TMR2_SetInterruptHandler
     _WDT_Initialize
   _TMR2_SetInterruptHandler
   _Tm_Baje_periodico
   _Tm_Hubo_periodico
   _Tm_Inicie_periodico
   _Tm_Procese_tiempo
   _enviarsiguiente_Dato
     _EUSART_Write
   _inicializar_nuestro_Display
   _inicializar_nuestroserial
   _llenar_registros_del_Serial
   _mostrar_Display
     _Prender_seg
   _tengodatos_PorEnviar

 _INTERRUPT_InterruptManager (ROOT)
   _ADC_ISR
     Absolute function(Fake) *
     _ADC_DefaultInterruptHandler *
     _miatencionadc *
   _TMR2_ISR
     Absolute function(Fake) *
     _TMR2_DefaultInterruptHandler *
     _miatenciontmr2 *

 Address spaces:
Name               Size   Autos  Total    Cost      Usage
BIGRAM             170      0       0       0        0.0%
EEDATA             100      0       0       0        0.0%
NULL                 0      0       0       0        0.0%
CODE                 0      0       0       0        0.0%
BITCOMMON            E      0       0       1        0.0%
BITSFR0              0      0       0       1        0.0%
SFR0                 0      0       0       1        0.0%
COMMON               E      E       E       2      100.0%
BITSFR1              0      0       0       2        0.0%
SFR1                 0      0       0       2        0.0%
BITSFR2              0      0       0       3        0.0%
SFR2                 0      0       0       3        0.0%
STACK                0      0       0       3        0.0%
BITSFR3              0      0       0       4        0.0%
SFR3                 0      0       0       4        0.0%
ABS                  0      0      97       4        0.0%
BITBANK0            50      0       0       5        0.0%
BITSFR4              0      0       0       5        0.0%
SFR4                 0      0       0       5        0.0%
BANK0               50     50      50       6      100.0%
BITSFR5              0      0       0       6        0.0%
SFR5                 0      0       0       6        0.0%
BITBANK1            50      0       0       7        0.0%
BITSFR6              0      0       0       7        0.0%
SFR6                 0      0       0       7        0.0%
BANK1               50     24      39       8       71.2%
BITSFR7              0      0       0       8        0.0%
SFR7                 0      0       0       8        0.0%
BITBANK2            50      0       0       9        0.0%
BITSFR8              0      0       0       9        0.0%
SFR8                 0      0       0       9        0.0%
BANK2               50      0       0      10        0.0%
BITSFR9              0      0       0      10        0.0%
SFR9                 0      0       0      10        0.0%
BITBANK3            50      0       0      11        0.0%
BITSFR10             0      0       0      11        0.0%
SFR10                0      0       0      11        0.0%
BANK3               50      0       0      12        0.0%
BITSFR11             0      0       0      12        0.0%
SFR11                0      0       0      12        0.0%
BITBANK4            30      0       0      13        0.0%
BITSFR12             0      0       0      13        0.0%
SFR12                0      0       0      13        0.0%
BANK4               30      0       0      14        0.0%
BITSFR13             0      0       0      14        0.0%
SFR13                0      0       0      14        0.0%
BITSFR14             0      0       0      15        0.0%
SFR14                0      0       0      15        0.0%
DATA                 0      0      97      15        0.0%
BITSFR15             0      0       0      16        0.0%
SFR15                0      0       0      16        0.0%
BITSFR16             0      0       0      17        0.0%
SFR16                0      0       0      17        0.0%
BITSFR17             0      0       0      18        0.0%
SFR17                0      0       0      18        0.0%
BITSFR18             0      0       0      19        0.0%
SFR18                0      0       0      19        0.0%
BITSFR19             0      0       0      20        0.0%
SFR19                0      0       0      20        0.0%
BITSFR20             0      0       0      21        0.0%
SFR20                0      0       0      21        0.0%
BITSFR21             0      0       0      22        0.0%
SFR21                0      0       0      22        0.0%
BITSFR22             0      0       0      23        0.0%
SFR22                0      0       0      23        0.0%
BITSFR23             0      0       0      24        0.0%
SFR23                0      0       0      24        0.0%
BITSFR24             0      0       0      25        0.0%
SFR24                0      0       0      25        0.0%
BITSFR25             0      0       0      26        0.0%
SFR25                0      0       0      26        0.0%
BITSFR26             0      0       0      27        0.0%
SFR26                0      0       0      27        0.0%
BITSFR27             0      0       0      28        0.0%
SFR27                0      0       0      28        0.0%
BITSFR28             0      0       0      29        0.0%
SFR28                0      0       0      29        0.0%
BITSFR29             0      0       0      30        0.0%
SFR29                0      0       0      30        0.0%
BITSFR30             0      0       0      31        0.0%
SFR30                0      0       0      31        0.0%
BITSFR31             0      0       0      32        0.0%
SFR31                0      0       0      32        0.0%


Microchip Technology PIC Macro Assembler V2.40 build 20220703182018 
Symbol Table                                                                                   Wed Mar 01 12:41:54 2023

             __end_of_TMR2_SetInterruptHandler 0B78                                   ___fldiv@aexp 0063  
                                 ___fldiv@bexp 0062                                   ___fldiv@sign 005B  
                                           l31 0B53                                             l25 0C2A  
                                           l28 0B85                                             l56 0C14  
                 __end_of_tengodatos_PorEnviar 0BB0                         __end_of_FVR_Initialize 0B50  
                          __Umul8_16@word_mpld 0076                                            l102 0CA5  
                                          l200 0B5F                                            l210 0B4F  
                                          l107 0BDC                                            l141 0B6B  
                                          l126 0B99                                            l144 0B71  
                                          l129 0BA1                                            l410 07BA  
                                          l234 0BFE                                            l147 0B65  
                                          l172 0BEC                                            l404 0C83  
                                          l181 0B7E                                            l501 0E7F  
                                          l421 0E50                                            l510 0E85  
                                          l351 07FE                                            l503 0E80  
                                          l431 0E55                                            l423 0E51  
                                          l415 0E4C                                            l184 0B59  
                                          l256 0B77                                            l360 0B8D  
                                          l600 07E0                                            l512 0E86  
                                          l344 0F3E                                            l521 0E8B  
                                          l441 0E5B                                            l433 0E57  
                                          l425 0E52                                            l417 0E4E  
                                          l178 0B43                                            l514 0E87  
                                          l506 0E82                                            l450 0E61  
                                          l363 0B97                                            l531 0E91  
                                          l523 0E8D                                            l443 0E5C  
                                          l435 0E58                                            l427 0E53  
                                          l419 0E4F                                            l603 0BAF  
                                          l540 0E97                                            l516 0E88  
                                          l508 0E84                                            l452 0E62  
                                          l357 0D12                                            l533 0E92  
                                          l525 0E8E                                            l461 0E67  
                                          l437 0E59                                            l606 0D5C  
                                          l542 0E98                                            l518 0E89  
                                          l454 0E63                                            l446 0E5E  
                                          l551 0E9D                                            l527 0E8F  
                                          l471 0E6D                                            l463 0E69  
                                          l439 0E5A                                            l544 0E99  
                                          l536 0E94                                            l480 0E73  
                                          l456 0E64                                            l448 0E60  
                                          l609 0C42                                            l561 0EA3  
                                          l553 0E9F                                            l529 0E90  
                                          l473 0E6E                                            l465 0E6A  
                                          l546 0E9A                                            l538 0E96  
                                          l482 0E74                                            l458 0E65  
                                          l570 0DD0                                            l563 0EA4  
                                          l555 0EA0                                            l491 0E79  
                                          l467 0E6B                                            l548 0E9B  
                                          l484 0E75                                            l476 0E70  
                                          l580 0DF0                                            l572 0DD2  
                                          l557 0EA1                                            l493 0E7B  
                                          l469 0E6C                                            l565 0ECB  
                                          l486 0E76                                            l478 0E72  
                                          l582 0DF1                                            l574 0DD3  
                                          l559 0EA2                                            l495 0E7C  
                                          l488 0E77                                            l592 0E4A  
                                          l497 0E7D                                            l585 0E0C  
                                          l578 0DEE                                            l499 0E7E  
                                          l587 0E0E                                            l597 07D6  
                                          l589 0E0F                                            l960 0DB8  
                                          l953 0DCD                                            l963 0DCD  
                                          _PR2 001B                                 ADC2Display@dis 00AD  
                               ADC2Display@aux 00A8                                __end_of_ADC_ISR 0BBF  
               ?_EUSART_SetFramingErrorHandler 0070                __end_of_ADC_SetInterruptHandler 0B60  
                              _TMR2_Initialize 0BED                                            wreg 0009  
                                 ___flmul@aexp 0042                                   ___flmul@bexp 0043  
                 ?_ADC_DefaultInterruptHandler 0070                                   ___flmul@sign 003D  
                                 ___flmul@temp 0048                  ??_llenar_registros_del_Serial 0073  
                                 ___flmul@prod 0044                                   ___fltol@exp1 006D  
                                         l1102 0479                                           l1103 0480  
                                         l1200 0F78                                           l1106 0C62  
                                         l1202 0FFF                                           l1140 0623  
                                         l1132 05B0                                           l1116 04D2  
                                         l1060 02CA                                           l1213 0FCB  
                                         l1118 062A                                           l1214 0FD7  
                                         l1206 0FB1                                           l1064 0348  
                                         l1137 05FC                                           l1081 03DA  
                                         l1073 0480                                           l2201 0B66  
                                         l3001 0D30                                           l1138 0616  
                                         l1162 01F4                                           l1066 0326  
                                         l1091 041E                                           l2211 0275  
                                         l2203 0B6C                                           l3011 0D57  
                                         l3003 0D35                                           l1156 0274  
                                         l1085 03FC                                           l2301 0334  
                                         l2221 0284                                           l2213 0278  
                                         l2205 0B60                                           l3005 0D40  
                                         l3013 0BA3                                           l1094 0456  
                                         l1175 0CB8                                           l2311 0351  
                                         l2303 0335                                           l2231 029C  
                                         l2223 0289                                           l2215 027A  
                                         l2207 0B5A                                           l3007 0D4B  
                                         l1168 0268                                           l1177 0CC8  
                                         l2401 047B                                           l2321 036A  
                                         l2305 033E                                           l2241 02AC  
                                         l2233 029F                                           l2225 0291  
                                         l2217 027E                                           l2209 0B72  
                                         l3017 0C2C                                           l3009 0D51  
                                         l2411 0CB4                                           l2403 047F  
                                         l2331 037E                                           l2323 036E  
                                         l2315 035A                                           l2307 0342  
                                         l2251 02C0                                           l2243 02AD  
                                         l2235 02A5                                           l2227 0292  
                                         l2219 027F                                           l3019 0C3A  
                                         l3051 0ED9                                           l2413 0CBF  
                                         l2405 0CA7                                           l2341 03C9  
                                         l2325 0370                                           l2317 0362  
                                         l2309 034C                                           l2333 0383  
                                         l2261 02DB                                           l2245 02B2  
                                         l2253 02C2                                           l2237 02A6  
                                         l2229 0294                                           l2501 0D81  
                                         l2421 0C02                                           l3133 0E3F  
                                         l3061 0EEF                                           l3053 0EDD  
                                         l3045 0ECC                                           l2415 0CC4  
                                         l2407 0CA9                                           l2351 03F0  
                                         l2335 039A                                           l2343 03D2  
                                         l2327 0374                                           l2319 0366  
                                         l2271 02E5                                           l2263 02DD  
                                         l2255 02D0                                           l2247 02B7  
                                         l2239 02A8                                           l2503 0D82  
                                         l2431 0B7F                                           l2423 0C05  
                                         l3135 0EAB                                           l3071 0F0A  
                                         l3063 0EF5                                           l3055 0EE1  
                                         l3047 0ECE                                           l2601 0530  
                                         l2409 0CB0                                           l2361 0405  
                                         l2353 03F7                                           l2345 03E2  
                                         l2337 03BE                                           l2329 0375  
                                         l2281 02EF                                           l2273 02E7  
                                         l2265 02DF                                           l2257 02D4  
                                         l2249 02BF                                           l2505 0D8A  
                                         l2441 0BDD                                           l2433 0B82  
                                         l2425 0C07                                           l3081 0F1F  
                                         l3073 0F0E                                           l3065 0EF6  
                                         l3057 0EE8                                           l3049 0ED1  
                                         l2611 055C                                           l2603 053E  
                                         l2371 0415                                           l2363 040A  
                                         l2355 03FB                                           l2347 03E7  
                                         l2339 03C4                                           l2291 02F8  
                                         l2283 02F1                                           l2275 02E9  
                                         l2267 02E1                                           l2259 02D9  
                                         l2531 0C46                                           l2523 0DAF  
                                         l2515 0D98                                           l2507 0D8C  
                                         l2443 0BE0                                           l2435 0B83  
                                         l2427 0C0A                                           l2419 0BFF  
                                         l2451 0BED                                           l3091 0F4F  
                                         l3083 0F20                                           l3075 0F11  
                                         l3067 0EFA                                           l3059 0EEF  
                                         l2621 0577                                           l2613 055D  
                                         l2605 0542                                           l2541 048B  
                                         l2701 006D                                           l2381 0430  
                                         l2373 041B                                           l2357 0400  
                                         l2365 040C                                           l2293 0310  
                                         l2285 02F3                                           l2277 02EB  
                                         l2269 02E3                                           l2525 0DBD  
                                         l2509 0D90                                           l2517 0DA8  
                                         l2445 0BE1                                           l2429 0C0F  
                                         l2461 0BFB                                           l2453 0BF0  
                                         l2437 0B50                                           l3085 0F28  
                                         l3077 0F11                                           l3069 0F01  
                                         l2631 058C                                           l2623 0579  
                                         l2615 0565                                           l2607 0543  
                                         l2551 049F                                           l2543 048C  
                                         l2535 0481                                           l2711 0089  
                                         l2703 0072                                           l2391 0468  
                                         l2383 0434                                           l2359 0403  
                                         l2367 0410                                           l2295 032A  
                                         l2287 02F5                                           l2279 02ED  
                                         l2527 0DC2                                           l2447 0BE4  
                                         l2471 0C9C                                           l2463 0C84  
                                         l2439 0B4C                                           l2455 0BF1  
                                         l3087 0F33                                           l3079 0F19  
                                         l2641 05AD                                           l2625 0580  
                                         l2633 0590                                           l2609 054A  
                                         l2617 0569                                           l2561 04B4  
                                         l2545 0491                                           l2553 04A1  
                                         l2537 0485                                           l2801 0254  
                                         l2721 00A7                                           l2713 008E  
                                         l2705 0077                                           l2393 046D  
                                         l2385 0452                                           l2377 0423  
                                         l2369 0411                                           l2297 032E  
                                         l2289 02F7                                           l2529 0C43  
                                         l2449 0BE5                                           l2473 0CA3  
                                         l2465 0C8D                                           l2457 0BF2  
                                         l3089 0F46                                           l2651 05C6  
                                         l2635 0594                                           l2627 0584  
                                         l2619 056F                                           l2571 04C8  
                                         l2563 04B5                                           l2555 04A9  
                                         l2547 0496                                           l2539 0487  
                                         l2811 026C                                           l2803 0256  
                                         l2731 00FE                                           l2723 00B4  
                                         l2715 0093                                           l2707 007F  
                                         l2395 046E                                           l2387 045B  
                                         l2379 0428                                           l2299 0330  
                                         l2467 0C8E                                           l2459 0BF4  
                                         l2475 0B99                                           l2483 0E4B  
                                         l2661 060D                                           l2653 05DE  
                                         l2645 05B5                                           l2637 0595  
                                         l2629 0585                                           l2565 04BA  
                                         l2573 04CA                                           l2557 04AE  
                                         l2549 049E                                           l2805 0261  
                                         l2741 012F                                           l2733 010B  
                                         l2725 00CC                                           l2709 0081  
                                         l2397 0472                                           l2389 0460  
                                         l2493 0D5D                                           l2821 0F70  
                                         l2469 0C95                                           l2477 0B9E  
                                         l2901 0C64                                           l2663 0615  
                                         l2647 05BA                                           l2655 05E2  
                                         l2639 0599                                           l2591 0511  
                                         l2575 04DA                                           l2583 04F3  
                                         l2567 04BF                                           l2559 04B0  
                                         l2807 0265                                           l2751 016C  
                                         l2743 0136                                           l2735 0112  
                                         l2727 00D9                                           l2719 009C  
                                         l2399 0474                                           l2495 0D67  
                                         l2831 0F97                                           l2823 0F80  
                                         l2815 0F57                                           l2911 0C7B  
                                         l2903 0C6C                                           l2487 0EA6  
                                         l2665 0619                                           l2657 05EF  
                                         l2649 05C2                                           l2593 0519  
                                         l2585 04F8                                           l2577 04E6  
                                         l2569 04C7                                           l2809 0266  
                                         l2761 01BD                                           l2753 017E  
                                         l2745 0148                                           l2737 011D  
                                         l2729 00F1                                           l2681 0044  
                                         l2841 0FC1                                           l2833 0F9E  
                                         l2817 0F5C                                           l2921 0C80  
                                         l2913 0C7C                                           l2905 0C71  
                                         l2667 061D                                           l2659 060A  
                                         l2595 0521                                           l2579 04EA  
                                         l2763 01C4                                           l2771 01D4  
                                         l2755 0193                                           l2747 014F  
                                         l2739 0124                                           l2691 0059  
                                         l2683 0045                                           l2675 003A  
                                         l2499 0D70                                           l2851 0FF2  
                                         l2843 0FC5                                           l2835 0FA2  
                                         l2827 0F89                                           l2819 0F60  
                                         l2931 0CDB                                           l2923 0C81  
                                         l2915 0C7D                                           l2907 0C78  
                                         l2669 061F                                           l2597 0529  
                                         l2589 0501                                           l2773 01D8  
                                         l2765 01C8                                           l2757 01AA  
                                         l2749 0161                                           l2693 0061  
                                         l2685 004A                                           l2677 003E  
                                         l2853 0FF6                                           l2845 0FCF  
                                         l2837 0FAA                                           l2829 0F8C  
                                         l2861 0BCE                                           l2933 0CE4  
                                         l2925 0C82                                           l2917 0C7E  
                                         l2909 0C7A                                           l2941 0DCF  
                                         l2599 052B                                           l2791 0222  
                                         l2783 01F9                                           l2775 01D9  
                                         l2767 01C9                                           l2759 01B1  
                                         l2695 0066                                           l2687 004F  
                                         l2679 0040                                           l2855 0FF7  
                                         l2847 0FD9                                           l2839 0FB8  
                                         l2863 0BCF                                           l2935 0CE9  
                                         l2927 0CCA                                           l2919 0C7F  
                                         l2951 0DFC                                           l2943 0DD4  
                                         l2785 01FE                                           l2793 0226  
                                         l2777 01DD                                           l2769 01D0  
                                         l2697 0068                                           l2689 0057  
                                         l2849 0FED                                           l2873 0B41  
                                         l2865 0BD4                                           l2929 0CD2  
                                         l2937 0CF4                                           l2961 0E2A  
                                         l2953 0E03                                           l2945 0DDE  
                                         l2795 0233                                           l2787 0206  
                                         l2779 01F1                                           l2699 006C  
                                         l2875 0B78                                           l2867 0BD9  
                                         l2859 0C15                                           l2939 0CFC  
                                         l2955 0E10                                           l2947 0DE5  
                                         l2963 0E32                                           l2797 023D  
                                         l2789 020A                                           l2981 06DF  
                                         l2869 0BDB                                           l2973 0B8F  
                                         l2957 0E1B                                           l2949 0DF2  
                                         l2799 024B                                           l2991 07A0  
                                         l2983 06E5                                           l2975 062D  
                                         l2879 0B54                                           l2895 07E2  
                                         l2959 0E22                                           l2993 07AA  
                                         l2985 0725                                           l2977 0670  
                                         l2969 0B87                                           l2897 07BC  
                                         l2995 07B4                                           l2987 078D  
                                         l2979 0688                                           l2899 07C2  
                                         l2989 0797                                           l2997 0D14  
                                         l2999 0D26                                           u2000 0B9E  
                                         u2001 0B9D                                           u2010 0D67  
                                         u2011 0D66                                           u2100 0DC2  
                                         u2020 0D7D                                           u2101 0DC1  
                                         u2110 048B                                           u2030 0D90  
                                         u2111 048A                                           u2031 0D8F  
                                         u2120 0491                                           u2040 0D97  
                                         u3000 0EF5                                           u2121 0490  
                                         u2041 0D96                                           u2025 0D79  
                                         u3001 0EF4                                           u2130 0496  
                                         u3010 0F0A                                           u2131 0495  
                                         u3011 0F09                                           u2300 0594  
                                         u2220 0542                                           u2140 04B4  
                                         u2060 0DA7                                           u3020 0F19  
                                         u2301 0593                                           u2221 0541  
                                         u2205 0531                                           u2141 04B3  
                                         u2061 0DA6                                           u3021 0F18  
                                         _LATA 010C                                           u2310 0599  
                                         u2150 04BA                                           u2070 0DAE  
                                         u3030 0F1F                                           _LATB 010D  
                                         u2311 0598                                           u2215 0538  
                                         u2151 04B9                                           u2071 0DAD  
                                         u2055 0D99                                           u3031 0F1E  
                                         u2320 05AD                                           u2240 055C  
                                         u2160 04BF                                           u2400 0044  
                                         u1600 02B7                                           u3040 0F46  
                                         u2321 05AC                                           u2241 055B  
                                         u2161 04BE                                           u2401 0043  
                                         u1601 02B6                                           u3041 0F45  
                                         u2330 05B4                                           u2250 056F  
                                         u2170 04DA                                           u2410 004A  
                                         u1610 02D0                                           u2090 0DBD  
                                         u3050 0F4F                                           u2331 05B3  
                                         u2251 056E                                           u2235 0544  
                                         u2171 04D9                                           u2411 0049  
                                         u1611 02CF                                           u2091 0DBC  
                                         u3051 0F4E                                           u2340 05BA  
                                         u2260 0577                                           u2180 04F8  
                                         u2500 0189                                           u2420 004F  
                                         u1700 034C                                           u1620 02D4  
                                         u1540 027E                                           u2341 05B9  
                                         u2261 0576                                           u2245 0558  
                                         u2181 04F7                                           u2421 004E  
                                         u1701 034B                                           u1621 02D3  
                                         u1541 027D                                           u2085 0DB0  
                                         u2350 05C6                                           u2190 0530  
                                         u2510 01A0                                           u2430 006C  
                                         u1710 0351                                           u1630 0310  
                                         u1550 0284                                           u2351 05C5  
                                         u2191 052F                                           u2431 006B  
                                         u1711 0350                                           u1631 030F  
                                         u1551 0283                                           u2360 05D4  
                                         u2280 0584                                           u2600 01FE  
                                         u2440 0072                                           u1720 0366  
                                         u1640 0319                                           u1560 0289  
                                         u2281 0583                                           u2601 01FD  
                                         u2505 0185                                           u2441 0071  
                                         u1721 0365                                           u1641 0317  
                                         u1561 0288                                           u2370 05EF  
                                         u2610 020A                                           u2450 0077  
                                         u1810 03FB                                           u1730 036A  
                                         u1650 031A                                           u1570 02A5  
                                         u2371 05EE                                           u2275 057A  
                                         u2611 0209                                           u2515 019C  
                                         u2451 0076                                           u1811 03FA  
                                         u1731 0369                                           u1635 030C  
                                         u1571 02A4                                           u2380 060A  
                                         u2620 0218                                           u2540 01C8  
                                         u2460 008E                                           u1900 0443  
                                         u1820 0400                                           u1740 0374  
                                         u1660 032A                                           u1580 02AC  
                                         u2700 0F9D                                           u2381 0609  
                                         u2365 05D0                                           u2541 01C7  
                                         u2525 01AB                                           u2461 008D  
                                         u1821 03FF                                           u1805 03F1  
                                         u1741 0373                                           u1661 0329  
                                         u1581 02AB                                           u2701 0F9C  
                                         u2390 061D                                           u2630 0233  
                                         u2470 0093                                           u1910 0452  
                                         u1830 040A                                           u1670 0334  
                                         u1590 02B2                                           u2391 061C  
                                         u2375 05EB                                           u2295 0586  
                                         u2631 0232                                           u2535 01BE  
                                         u2471 0092                                           u1911 0451  
                                         u1831 0409                                           u1671 0333  
                                         u1591 02B1                                           u2640 024B  
                                         u2560 01D8                                           u1920 045B  
                                         u1840 0410                                           u1760 039A  
                                         u2720 0FB7                                           u2800 0BD4  
                                         u2385 0606                                           u2641 024A  
                                         u2625 0214                                           u2561 01D7  
                                         u1921 045A                                           u1905 043F  
                                         u1841 040F                                           u1761 0399  
                                         u2721 0FB6                                           u2801 0BD3  
                                         u2650 0265                                           u2570 01DD  
                                         u1930 0460                                           u1850 0415  
                                         u1770 03C9                                           u1690 0348  
                                         u2810 0BD9                                           u2651 0264  
                                         u2635 022F                                           u2571 01DC  
                                         u2555 01CA                                           u1931 045F  
                                         u1851 0414                                           u1771 03C8  
                                         u1763 0396                                           u1755 0378  
                                         u1691 0347                                           u2715 0FAB  
                                         u2811 0BD8                                           u2580 01F1  
                                         u1940 046D                                           u1860 041B  
                                         u1780 03E2                                           u2740 0FC5  
                                         u2660 0F5C                                           u2900 07AA  
                                         u2645 0247                                           u2581 01F0  
                                         u2485 010C                                           u1941 046C  
                                         u1861 041A                                           u1781 03E1  
                                         u1685 0338                                           u2741 0FC4  
                                         u2661 0F5B                                           u2901 07A9  
                                         u2590 01F8                                           u1950 0472  
                                         u1870 0422                                           u1790 03E7  
                                         u2750 0FCB                                           u2670 0F60  
                                         u2910 0BAE                                           u2591 01F7  
                                         u2495 0137                                           u1951 0471  
                                         u1871 0421                                           u1791 03E6  
                                         u2751 0FCA                                           u2735 0FBB  
                                         u2671 0F5F                                           u2911 0BAC  
                                         u1960 047F                                           u1880 0428  
                                         u2760 0FCF                                           u2680 0F80  
                                         u2840 07E0                                           u2920 0BAF  
                                         u1961 047E                                           u1881 0427  
                                         u2761 0FCE                                           u2681 0F7F  
                                         u2841 07DF                                           u1970 0CB4  
                                         u1890 0434                                           u2770 0FE3  
                                         u2850 0CD2                                           u1971 0CB3  
                                         u1891 0433                                           u2851 0CD1  
                                         u2780 0FF2                                           u2860 0CE4  
                                         u2781 0FF1                                           u2861 0CE3  
                                         u1990 0CC4                                           u2790 0FF6  
                                         u2870 0CFC                                           u1991 0CC3  
                                         u2791 0FF5                                           u2775 0FDF  
                                         u2695 0F91                                           u2871 0CFB  
                                         u2880 0797                                           u1985 0CB9  
                                         u2881 0796                                           u2890 07A0  
                                         u2891 079F                                           _TMR2 001A  
                                         _WPUA 020C                                           _WPUB 020D  
                                         _main 0ECC                                           fsr0h 0005  
                                         fsr1h 0007                                           indf0 0000  
                                         fsr0l 0004                                           indf1 0001  
                                         fsr1l 0006                                           btemp 007E  
                                         start 0028                                ___fldiv@new_exp 005C  
                              ?_FVR_Initialize 0070                                  ?_EUSART_Write 0070  
                __end_of_OSCILLATOR_Initialize 0B86                                  ___fltol@sign1 006C  
                              __end_of___fladd 0481                                          ?_main 0070  
                              __end_of___fldiv 062B                                __end_of___flmul 0275  
                              __end_of___flsub 0C63                                __end_of___fltol 0DCE  
                                        _T2CON 001C                    ??_inicializar_nuestroserial 0070  
                                        i1l203 0003                                          i1l333 0B4B  
                                        i1l253 0BCD                                          i1l336 0B47  
                                        i1l280 0026                                          i1l259 07FF  
                                        i1l275 0018                                          i1l276 0026  
                                        i1l197 0BBE                                          _RCREG 0199  
                                        _RCSTA 019D                                          _VGAIT 00CD  
                                        _TRISA 008C                                          _TRISB 008D  
                                        _TXREG 019A                                          _TXSTA 019E  
                             __end_of_TMR2_ISR 0BCE                                   main@miserial 00B5  
                            ??_mostrar_Display 0074                                 _WDT_Initialize 0B50  
                                        pclath 000A                                          status 0003  
                                        wtemp0 007E                    __end_of_Tm_Inicie_periodico 07FF  
                              __initialization 002A                                   __end_of_main 0F56  
                            _Tm_Baje_periodico 0B8E                                 ??_EUSART_Write 0070  
                      __end_of_TMR2_Initialize 0BFF                                      ??_ADC_ISR 0070  
                  ?_INTERRUPT_InterruptManager 0070                             ?_Tm_Baje_periodico 0070  
                     _TMR2_SetInterruptHandler 0B72                                         ??_main 007E  
                                main@miDisplay 00BF                         __end_of_WDT_Initialize 0B54  
                          ??_Tm_Baje_periodico 0070              _EUSART_DefaultFramingErrorHandler 0000  
                                       _ADCON0 009D                                         _ADCON1 009E  
                   _EUSART_OverrunErrorHandler 00D5                                         _ADRESH 009C  
                                       _ADRESL 009B                                         _ANSELA 018C  
                                       _ANSELB 018D                                         _BORCON 0116  
                                       i1l3041 001D                                         i1l3033 0006  
                                       i1l3043 0022                                         i1l3035 000A  
                                       i1l3037 000F                                         i1l3039 0014  
                                       i1l2481 0B44                                         i1l2479 0B48  
                                       i1l2883 0BB0                                         i1l2891 0BC1  
                                       i1l2885 0BB2                                         i1l2893 0BC8  
                                       i1l2887 0BB9                                         i1l2889 0BBF  
                                       _FVRCON 0117                     __end_of_EUSART_is_tx_ready 0BDD  
                                       u282_20 0BB9                                         u282_21 0BB8  
                                       u283_20 0BC8                                         u283_21 0BC7  
                         _tengodatos_PorEnviar 0BA2                                         u295_20 000A  
                                       u295_21 0009                                         u296_20 000F  
                                       u296_21 000E                                         u297_20 0014  
                                       u297_21 0013                                         u298_20 001D  
                                       _OSCCON 0099                                         u298_21 001C  
                                       u299_20 0022                                         u299_21 0021  
                                       _SPBRGH 019C                                         _SPBRGL 019B  
                                       _WDTCON 0097                      _inicializar_nuestroserial 07BB  
                             __end_of___xxtofl 1000                                         _ValADC 00CA  
                            ADC2Display@adcVal 006E                      __end_of_Tm_Baje_periodico 0B98  
                                    ??___fladd 0020                             mostrar_Display@dis 0076  
                                    ??___fldiv 0052                                      ??___flmul 0038  
                                    ??___flsub 007E                                      ??___fltol 0068  
                            _Tm_Hubo_periodico 0B86                                  ??_Prender_seg 0072  
                           ?_Tm_Hubo_periodico 0070                   inicializar_nuestroserial@ser 0071  
                                main@timer_ADC 00AE                                ?_WDT_Initialize 0070  
                          ??_Tm_Hubo_periodico 0070       TMR2_SetInterruptHandler@InterruptHandler 0070  
      ADC_SetInterruptHandler@InterruptHandler 0070                          ?_tengodatos_PorEnviar 0070  
                                 ___xxtofl@arg 007A                                   ___xxtofl@exp 0079  
                            _SYSTEM_Initialize 0C15                                   ___xxtofl@val 0070  
                      __end_of__initialization 0036                             ?_SYSTEM_Initialize 0070  
                                   ___fltol@f1 0064                                  ??_ADC2Display 00A0  
                    __end_of_Tm_Hubo_periodico 0B8E                                 __pcstackCOMMON 0070  
                          ??_SYSTEM_Initialize 0072                                      ?_TMR2_ISR 0070  
                             ?_TMR2_Initialize 0070                        _ADC_GetConversionResult 0B54  
                               _OPTION_REGbits 0095                            __end_of_Prender_seg 0ECC  
                                _miatencionadc 0B44                ??_EUSART_SetOverrunErrorHandler 0072  
                    __end_of_SYSTEM_Initialize 0C2B                                     __pbssBANK1 00C4  
                         __end_of_EUSART_Write 0BA2                              __end_of__Umul8_16 0CC9  
                             ??_FVR_Initialize 0070                                     __pmaintext 0ECC  
                                   ??_TMR2_ISR 0070                                     __pintentry 0004  
                                      _ADC_ISR 0BB0                                        _BAUDCON 019F  
                              _mostrar_Display 0DCE                                        _APFCON0 011D  
                                      _APFCON1 011E                            __end_of_ADC2Display 07BB  
                 __end_of_enviarsiguiente_Dato 0C43                                      ?___xxtofl 0070  
                               ?_miatencionadc 0070                                        _OSCTUNE 0098  
                     ??_EUSART_SetErrorHandler 0072                         ??_tengodatos_PorEnviar 0070  
                            _Tm_Procese_tiempo 0CC9                             ?_Tm_Procese_tiempo 0070  
                 ?_inicializar_nuestro_Display 0070                           _ADC_InterruptHandler 00D1  
                      _ADC_SetInterruptHandler 0B5A                            ??_Tm_Procese_tiempo 0070  
                   ??_TMR2_SetInterruptHandler 0072                                        ___fladd 0275  
                                      ___fldiv 0481                                        ___flmul 003A  
                                      ___flsub 0C43                                        ___fltol 0D5D  
                                  _Prender_seg 0E4B                      ??_ADC_GetConversionResult 0072  
                                      _datoadc 00C8                                        __ptext1 0BA2  
                                      __ptext2 0DCE                                        __ptext3 0E4B  
                                      __ptext4 0D13                                        __ptext5 07BB  
                                      __ptext6 0C63                                        __ptext7 0C2B  
                                      __ptext8 0B98                                        __ptext9 0CC9  
          __end_of_llenar_registros_del_Serial 0D5D                    _llenar_registros_del_Serial 0D13  
                        _OSCILLATOR_Initialize 0B7F                                      _T2CONbits 001C  
                                   ??___xxtofl 0074                       ??_PIN_MANAGER_Initialize 0070  
                    __end_of_Tm_Procese_tiempo 0D13                             ADC2Display@voltios 00A9  
               llenar_registros_del_Serial@ser 0073                           end_of_initialization 0036  
        __end_of_EUSART_SetOverrunErrorHandler 0B72                  _EUSART_SetOverrunErrorHandler 0B6C  
                            _EUSART_Initialize 0C84                  ??_inicializar_nuestro_Display 0070  
                 __end_of_ADC_IsConversionDone 0B7F                        __end_of_mostrar_Display 0E4B  
                           ?_EUSART_Initialize 0070                                    _ADC2Display 062B  
                                    _RCSTAbits 019D                             _EUSART_is_tx_ready 0BCE  
                      tengodatos_PorEnviar@ser 0070              __end_of_inicializar_nuestroserial 07E1  
                          ??_EUSART_Initialize 0072                               ??_WDT_Initialize 0070  
                          ?_EUSART_is_tx_ready 0070                                ??_miatencionadc 0070  
                                  ___fladd@grs 007B            __end_of_ADC_DefaultInterruptHandler 0004  
                  _ADC_DefaultInterruptHandler 0003                                  ___xxtofl@sign 0078  
                          _ADC_StartConversion 0B41                                    ___fldiv@grs 005E  
                                  ___fldiv@rem 0057                                    ___flmul@grs 003E  
                    __end_of_EUSART_Initialize 0CA6                  ??_ADC_DefaultInterruptHandler 0070  
                    ??_ADC_SetInterruptHandler 0072                           ??_EUSART_is_tx_ready 0070  
                                    _TXSTAbits 019E                           _enviarsiguiente_Dato 0C2B  
                         ?_ADC_StartConversion 0070           __end_of_TMR2_DefaultInterruptHandler 0800  
                 _TMR2_DefaultInterruptHandler 07FF                     _EUSART_DefaultErrorHandler 0000  
                                 _EUSART_Write 0B98                                 _ADC_Initialize 0BDD  
                       ?_OSCILLATOR_Initialize 0070                           Tm_Procese_tiempo@ctp 0074  
                          start_initialization 002A                         _EUSART_is_tx_ready$254 0070  
                        ?_enviarsiguiente_Dato 0070                        mostrar_Display@caracter 0072  
               ?_EUSART_SetOverrunErrorHandler 0070                          ??_ADC_StartConversion 0070  
                             ?_mostrar_Display 0072                         Tm_Inicie_periodico@ctp 0073  
                   _EUSART_FramingErrorHandler 00D7                                 _miatenciontmr2 0B48  
                       _EUSART_SetErrorHandler 0B60                         __end_of_ADC_Initialize 0BED  
                                    __Umul8_16 0CA6                                       ?_ADC_ISR 0070  
                ?_TMR2_DefaultInterruptHandler 0070                                      ___fladd@a 0074  
                                    ___fladd@b 0070                                      ___fldiv@a 004A  
                                    ___fldiv@b 004E                                      ___flmul@a 0034  
                                    ___flmul@b 0030                                      ___flsub@a 0028  
                                    ___flsub@b 002C                                      ___latbits 0001  
                                __pcstackBANK0 0020                                  __pcstackBANK1 00A0  
                         _ADC_IsConversionDone 0B78                 inicializar_nuestro_Display@dis 0070  
                                    __pnvBANK1 00CF                         __end_of_miatenciontmr2 0B4C  
                       _PIN_MANAGER_Initialize 0BFF                                       ?___fladd 0070  
                                     ?___fldiv 004A                                       ?___flmul 0030  
                                     ?___flsub 0028                                       ?___fltol 0064  
                                   ?__Umul8_16 0070                                ?_ADC_Initialize 0070  
                                 ?_Prender_seg 0070                   ??_INTERRUPT_InterruptManager 0070  
                        ?_ADC_IsConversionDone 0070                            _Tm_Inicie_periodico 07E1  
                       ??_enviarsiguiente_Dato 0071                                       _LATAbits 010C  
       EUSART_SetErrorHandler@interruptHandler 0070                                       _LATBbits 010D  
                                     _PIE1bits 0091                              _eusartRxLastError 00CE  
                              ?_miatenciontmr2 0070                                       _PIR1bits 0011  
              ??_EUSART_SetFramingErrorHandler 0072                                   ?_ADC2Display 006E  
                                     _VGAI_adc 00CC                           ?_Tm_Inicie_periodico 0070  
            _EUSART_DefaultOverrunErrorHandler 0000                                       _TMR2_ISR 0BBF  
                                   _ADCON0bits 009D                 ??_TMR2_DefaultInterruptHandler 0070  
                    ?_TMR2_SetInterruptHandler 0070                              ??_TMR2_Initialize 0072  
                     ?_ADC_GetConversionResult 0070                          ??_Tm_Inicie_periodico 0072  
                      ??_OSCILLATOR_Initialize 0070                                    ??__Umul8_16 0072  
                          _EUSART_ErrorHandler 00D3                     ?_inicializar_nuestroserial 0070  
                       ??_ADC_IsConversionDone 0070                     Tm_Inicie_periodico@periodo 0070  
                                     _caracter 00C4                                       ___xxtofl 0F56  
                        __end_of_miatencionadc 0B48                                       __ptext10 07E1  
                                     __ptext11 0B86                                       __ptext20 0C84  
                                     __ptext12 0B8E                                       __ptext21 0B6C  
                                     __ptext13 0C15                                       __ptext30 062B  
                                     __ptext22 0B66                                       __ptext14 0B50  
                                     __ptext31 0F56                                       __ptext23 0B60  
                                     __ptext15 0BED                                       __ptext40 07FF  
                                     __ptext32 0D5D                                       __ptext24 0BDD  
                                     __ptext16 0B72                                       __ptext41 0B48  
                                     __ptext33 0C43                                       __ptext25 0B5A  
                                     __ptext17 0BFF                                       __ptext42 0BB0  
                                     __ptext34 0275                                       __ptext26 0BCE  
                                     __ptext18 0B7F                                       __ptext43 0003  
                                     __ptext35 003A                                       __ptext27 0B41  
                                     __ptext19 0B4C                                       __ptext44 0B44  
                                     __ptext36 0CA6                                       __ptext28 0B78  
                                     __ptext37 0481                                       __ptext29 0B54  
                                     __ptext39 0BBF            __end_of_inicializar_nuestro_Display 0C84  
                  _inicializar_nuestro_Display 0C63                        ?_EUSART_SetErrorHandler 0070  
                         Tm_Baje_periodico@ctp 0071  EUSART_SetOverrunErrorHandler@interruptHandler 0070  
              llenar_registros_del_Serial@Dig1 0070                llenar_registros_del_Serial@Dig2 0071  
              llenar_registros_del_Serial@Dig3 0072                                       int$flags 007E  
           __end_of_INTERRUPT_InterruptManager 0028                     _INTERRUPT_InterruptManager 0004  
        __end_of_EUSART_SetFramingErrorHandler 0B6C                  _EUSART_SetFramingErrorHandler 0B66  
                                   _INTCONbits 000B                                     _FVRCONbits 0117  
                         Tm_Hubo_periodico@ctp 0070                       ?_ADC_SetInterruptHandler 0070  
                                     intlevel1 0000                    __end_of_ADC_StartConversion 0B44  
                                  _num_Display 00C6                        ?_PIN_MANAGER_Initialize 0070  
              __end_of_ADC_GetConversionResult 0B5A                 __end_of_EUSART_SetErrorHandler 0B66  
                             ??_ADC_Initialize 0072  EUSART_SetFramingErrorHandler@interruptHandler 0070  
                          Prender_seg@caracter 0070                        enviarsiguiente_Dato@ser 0072  
                             _ADC2Display$1620 00A4                                 _FVR_Initialize 0B4C  
                       __Umul8_16@multiplicand 0070                   ?_llenar_registros_del_Serial 0070  
                                ___fladd@signs 0078                             EUSART_Write@txData 0070  
               __end_of_PIN_MANAGER_Initialize 0C15                               ??_miatenciontmr2 0070  
                                 ___fladd@aexp 0079                                   ___fladd@bexp 007A  
                         __Umul8_16@multiplier 0078                          _TMR2_InterruptHandler 00CF  
                            __Umul8_16@product 0074  
